	.cpu generic+fp+simd
	.file	"hisi-blk-mq-dispatch-strategy.c"
	.text
.Ltext0:
	.cfi_sections	.debug_frame
#APP
	.irp	num,0,1,2,3,4,5,6,7,8,9,10,11,12,13,14,15,16,17,18,19,20,21,22,23,24,25,26,27,28,29,30
	.equ	.L__reg_num_x\num, \num
	.endr
	.equ	.L__reg_num_xzr, 31

	.macro	mrs_s, rt, sreg
	.inst	0xd5200000|(\sreg)|(.L__reg_num_\rt)
	.endm

	.macro	msr_s, sreg, rt
	.inst	0xd5000000|(\sreg)|(.L__reg_num_\rt)
	.endm

#NO_APP
	.align	2
	.type	hisi_blk_mq_async_sched_fifo_init, %function
hisi_blk_mq_async_sched_fifo_init:
.LFB2928:
	.file 1 "/mnt/disk/jslave/ci/workspace/BKL_L04_B100_chipset/opensource/component_code/vendor/huawei/extra/build/build_script/kirin_kernel_release/kernel/block/hisi-blk-mq-dispatch-strategy.c"
	.loc 1 532 0
	.cfi_startproc
.LVL0:
	.loc 1 533 0
	add	x1, x0, 1720
.LBB782:
.LBB783:
	.file 2 "/mnt/disk/jslave/ci/workspace/BKL_L04_B100_chipset/opensource/component_code/vendor/huawei/extra/build/build_script/kirin_kernel_release/kernel/include/linux/list.h"
	.loc 2 27 0
	str	x1, [x0,1720]
	.loc 2 28 0
	str	x1, [x1,8]
.LBE783:
.LBE782:
	.loc 1 534 0
	ret
	.cfi_endproc
.LFE2928:
	.size	hisi_blk_mq_async_sched_fifo_init, .-hisi_blk_mq_async_sched_fifo_init
	.align	2
	.type	hisi_blk_mq_async_sched_fifo_insert, %function
hisi_blk_mq_async_sched_fifo_insert:
.LFB2929:
	.loc 1 537 0
	.cfi_startproc
.LVL1:
.LBB784:
.LBB785:
	.loc 2 77 0
	ldr	x3, [x1,1728]
.LBE785:
.LBE784:
	.loc 1 538 0
	add	x2, x0, 120
.LBB791:
.LBB790:
.LBB786:
.LBB787:
	.loc 2 42 0
	str	x2, [x1,1728]
.LBE787:
.LBE786:
	.loc 2 77 0
	add	x1, x1, 1720
.LVL2:
.LBB789:
.LBB788:
	.loc 2 44 0
	str	x3, [x0,128]
	.loc 2 43 0
	str	x1, [x0,120]
	.loc 2 45 0
	str	x2, [x3]
.LBE788:
.LBE789:
.LBE790:
.LBE791:
	.loc 1 539 0
	ret
	.cfi_endproc
.LFE2929:
	.size	hisi_blk_mq_async_sched_fifo_insert, .-hisi_blk_mq_async_sched_fifo_insert
	.align	2
	.type	hisi_blk_mq_async_sched_fifo_seek, %function
hisi_blk_mq_async_sched_fifo_seek:
.LFB2930:
	.loc 1 542 0
	.cfi_startproc
.LVL3:
.LBB792:
.LBB793:
	.loc 2 216 0
	ldr	x1, [x0,1720]
.LVL4:
.LBE793:
.LBE792:
	.loc 1 543 0
	add	x2, x0, 1720
.LBB796:
.LBB794:
	.loc 2 217 0
	cmp	x2, x1
	beq	.L8
.L4:
.LBE794:
.LBE796:
.LBB797:
.LBB798:
.LBB799:
.LBB800:
	.loc 2 102 0
	ldr	x3, [x1]
.LBE800:
.LBE799:
.LBE798:
	.loc 1 546 0
	sub	x0, x1, #120
.LVL5:
.LBB810:
.LBB807:
.LBB806:
	.loc 2 102 0
	ldr	x2, [x1,8]
.LBB801:
.LBB802:
	.loc 2 89 0
	str	x2, [x3,8]
.LBB803:
.LBB804:
.LBB805:
	.file 3 "/mnt/disk/jslave/ci/workspace/BKL_L04_B100_chipset/opensource/component_code/vendor/huawei/extra/build/build_script/kirin_kernel_release/kernel/include/linux/compiler.h"
	.loc 3 247 0
	str	x3, [x2]
.LBE805:
.LBE804:
.LBE803:
.LBE802:
.LBE801:
.LBE806:
.LBE807:
.LBB808:
.LBB809:
	.loc 2 27 0
	str	x1, [x1]
	.loc 2 28 0
	str	x1, [x1,8]
.LBE809:
.LBE808:
.LBE810:
.LBE797:
	.loc 1 550 0
	ret
.LVL6:
.L8:
.LBB811:
.LBB795:
	.loc 2 217 0 discriminator 1
	ldr	x0, [x0,1728]
.LVL7:
	cmp	x2, x0
	bne	.L4
.LBE795:
.LBE811:
	.loc 1 548 0
	mov	x0, 0
	.loc 1 550 0
	ret
	.cfi_endproc
.LFE2930:
	.size	hisi_blk_mq_async_sched_fifo_seek, .-hisi_blk_mq_async_sched_fifo_seek
	.align	2
	.type	hisi_blk_mq_async_sched_fifo_requeue, %function
hisi_blk_mq_async_sched_fifo_requeue:
.LFB2931:
	.loc 1 553 0
	.cfi_startproc
.LVL8:
.LBB812:
.LBB813:
	.loc 2 63 0
	ldr	x3, [x1,1720]
.LBE813:
.LBE812:
	.loc 1 554 0
	add	x2, x0, 120
.LBB817:
.LBB816:
	.loc 2 63 0
	add	x4, x1, 1720
.LBB814:
.LBB815:
	.loc 2 42 0
	str	x2, [x3,8]
	.loc 2 43 0
	str	x3, [x0,120]
	.loc 2 44 0
	str	x4, [x0,128]
	.loc 2 45 0
	str	x2, [x1,1720]
.LBE815:
.LBE814:
.LBE816:
.LBE817:
	.loc 1 555 0
	ret
	.cfi_endproc
.LFE2931:
	.size	hisi_blk_mq_async_sched_fifo_requeue, .-hisi_blk_mq_async_sched_fifo_requeue
	.align	2
	.type	hisi_blk_mq_async_sched_fifo_is_empty, %function
hisi_blk_mq_async_sched_fifo_is_empty:
.LFB2933:
	.loc 1 577 0
	.cfi_startproc
.LVL9:
	.loc 1 578 0
	add	x1, x0, 1720
.LBB818:
.LBB819:
	.loc 2 198 0
	ldr	x0, [x0,1720]
.LVL10:
	cmp	x0, x1
.LBE819:
.LBE818:
	.loc 1 579 0
	cset	w0, eq
	ret
	.cfi_endproc
.LFE2933:
	.size	hisi_blk_mq_async_sched_fifo_is_empty, .-hisi_blk_mq_async_sched_fifo_is_empty
	.align	2
	.type	hisi_blk_mq_insert_sync_list, %function
hisi_blk_mq_insert_sync_list:
.LFB2922:
	.loc 1 320 0
	.cfi_startproc
.LVL11:
	stp	x29, x30, [sp, -48]!
	.cfi_def_cfa_offset 48
	.cfi_offset 29, -48
	.cfi_offset 30, -40
	add	x29, sp, 0
	.cfi_def_cfa_register 29
	stp	x19, x20, [sp,16]
	.cfi_offset 19, -32
	.cfi_offset 20, -24
	mov	x19, x1
	.loc 1 323 0
	mov	w1, 6
.LVL12:
	.loc 1 320 0
	mov	x20, x0
	str	x21, [sp,32]
	.cfi_offset 21, -16
	.loc 1 323 0
	bl	req_latency_check
.LVL13:
.LBB828:
.LBB829:
	.file 4 "/mnt/disk/jslave/ci/workspace/BKL_L04_B100_chipset/opensource/component_code/vendor/huawei/extra/build/build_script/kirin_kernel_release/kernel/include/linux/spinlock.h"
	.loc 4 291 0
	add	x21, x19, 696
.LBE829:
.LBE828:
	.loc 1 325 0 discriminator 1
	mov	x0, x21
	bl	_raw_spin_lock_irqsave
.LVL14:
	mov	x1, x0
.LVL15:
	.loc 1 326 0
	ldr	x2, [x20,88]
	.loc 1 326 0 is_stmt 0 discriminator 1
	add	x3, x19, 656
	add	x19, x19, 680
.LVL16:
.LBB830:
.LBB831:
	.loc 4 362 0 is_stmt 1
	mov	x0, x21
.LBE831:
.LBE830:
	.loc 1 326 0
	and	x2, x2, 32
	.loc 1 326 0 is_stmt 0 discriminator 1
	cmp	x2, xzr
	csel	x19, x19, x3, eq
.LBB833:
.LBB834:
	.loc 2 77 0 is_stmt 1
	ldr	x2, [x19,8]
.LBB835:
.LBB836:
	.loc 2 42 0
	str	x20, [x19,8]
	.loc 2 44 0
	str	x2, [x20,8]
	.loc 2 43 0
	str	x19, [x20]
	.loc 2 45 0
	str	x20, [x2]
.LBE836:
.LBE835:
.LBE834:
.LBE833:
.LBB837:
.LBB832:
	.loc 4 362 0
	bl	_raw_spin_unlock_irqrestore
.LVL17:
.LBE832:
.LBE837:
	.loc 1 329 0
	ldr	x21, [sp,32]
	.cfi_restore 21
	mov	w0, 1
	ldp	x19, x20, [sp,16]
	.cfi_restore 20
	.cfi_restore 19
.LVL18:
	ldp	x29, x30, [sp], 48
	.cfi_restore 30
	.cfi_restore 29
	.cfi_def_cfa 31, 0
	ret
	.cfi_endproc
.LFE2922:
	.size	hisi_blk_mq_insert_sync_list, .-hisi_blk_mq_insert_sync_list
	.align	2
	.type	hisi_blk_mq_run_async_list, %function
hisi_blk_mq_run_async_list:
.LFB2934:
	.loc 1 719 0
	.cfi_startproc
.LVL19:
	.loc 1 720 0
	adrp	x1, kti_offset
	.loc 1 721 0
	mov	x3, 0
	.loc 1 719 0
	stp	x29, x30, [sp, -16]!
	.cfi_def_cfa_offset 16
	.cfi_offset 29, -16
	.cfi_offset 30, -8
.LBB838:
.LBB839:
	.file 5 "/mnt/disk/jslave/ci/workspace/BKL_L04_B100_chipset/opensource/component_code/vendor/huawei/extra/build/build_script/kirin_kernel_release/kernel/arch/arm64/include/asm/thread_info.h"
	.loc 5 82 0
#APP
// 82 "/mnt/disk/jslave/ci/workspace/BKL_L04_B100_chipset/opensource/component_code/vendor/huawei/extra/build/build_script/kirin_kernel_release/kernel/arch/arm64/include/asm/thread_info.h" 1
	mrs x2, sp_el0
// 0 "" 2
.LVL20:
#NO_APP
.LBE839:
.LBE838:
	.loc 1 719 0
	add	x29, sp, 0
	.cfi_def_cfa_register 29
	.loc 1 720 0
	ldr	x4, [x1,#:lo12:kti_offset]
	.loc 1 721 0
	adrp	x1, .LANCHOR0
	.loc 1 720 0
	add	x2, x2, x4
.LVL21:
	.loc 1 721 0
	ldr	x1, [x1,#:lo12:.LANCHOR0]
	.loc 1 720 0
	ldr	w4, [x2,28]
.LVL22:
	.loc 1 721 0
	sxtw	x2, w4
.LVL23:
	lsl	x5, x2, 7
	sub	x2, x5, x2, lsl 4
.LVL24:
	add	x2, x0, x2
.LVL25:
	mov	w0, w4
.LVL26:
	add	x2, x2, 1784
	bl	queue_delayed_work_on
.LVL27:
	.loc 1 723 0
	mov	w0, 1
	ldp	x29, x30, [sp], 16
	.cfi_restore 30
	.cfi_restore 29
	.cfi_def_cfa 31, 0
	ret
	.cfi_endproc
.LFE2934:
	.size	hisi_blk_mq_run_async_list, .-hisi_blk_mq_run_async_list
	.align	2
	.type	hisi_blk_mq_sync_burst_check_timer_expire, %function
hisi_blk_mq_sync_burst_check_timer_expire:
.LFB2913:
	.loc 1 130 0
	.cfi_startproc
.LVL28:
	stp	x29, x30, [sp, -32]!
	.cfi_def_cfa_offset 32
	.cfi_offset 29, -32
	.cfi_offset 30, -24
	add	x29, sp, 0
	.cfi_def_cfa_register 29
	str	x19, [sp,16]
	.cfi_offset 19, -16
	.loc 1 130 0
	mov	x19, x0
.LVL29:
	.loc 1 133 0
	bl	ktime_get
.LVL30:
.LBB904:
.LBB905:
.LBB906:
	.loc 3 218 0 discriminator 4
	ldr	w1, [x19,1624]
.LBE906:
.LBE905:
.LBE904:
	.loc 1 135 0 discriminator 5
	sub	w1, w1, #1
	cmp	w1, 1
	bhi	.L16
	.loc 1 138 0
	adrp	x2, .LANCHOR1
	ldr	x3, [x19,1704]
.LVL31:
.LBB907:
.LBB908:
.LBB909:
	.file 6 "/mnt/disk/jslave/ci/workspace/BKL_L04_B100_chipset/opensource/component_code/vendor/huawei/extra/build/build_script/kirin_kernel_release/kernel/include/linux/ktime.h"
	.loc 6 233 0
	mov	w1, 16960
	movk	w1, 0xf, lsl 16
.LBE909:
.LBE908:
.LBE907:
	.loc 1 138 0
	ldr	w2, [x2,#:lo12:.LANCHOR1]
.LBB915:
.LBB911:
.LBB910:
	.loc 6 233 0
	smaddl	x1, w2, w1, x3
.LVL32:
.LBE910:
.LBE911:
.LBB912:
.LBB913:
.LBB914:
	.loc 6 146 0
	cmp	x0, x1
	bgt	.L18
.L16:
.LBE914:
.LBE913:
.LBE912:
.LBE915:
.LBB916:
.LBB917:
.LBB918:
	.loc 6 233 0
	ldr	x1, [x19,1680]
	add	x1, x1, 9998336
	add	x1, x1, 1664
.LBE918:
.LBE917:
.LBB919:
.LBB920:
.LBB921:
	.loc 6 144 0
	cmp	x0, x1
	bge	.L37
.LBE921:
.LBE920:
.LBE919:
.LBE916:
.LBB922:
.LBB923:
.LBB924:
.LBB925:
.LBB926:
	.loc 3 218 0 discriminator 4
	ldr	w0, [x19,1624]
.LVL33:
.LBE926:
.LBE925:
.LBE924:
	.loc 1 93 0 discriminator 5
	cmp	w0, 1
	beq	.L21
	cmp	w0, 3
	bne	.L22
.LBB927:
.LBB928:
.LBB929:
	.loc 3 218 0 discriminator 4
	ldr	w0, [x19,616]
.LBE929:
.LBE928:
.LBE927:
	.loc 1 98 0 discriminator 5
	cbnz	w0, .L22
.L35:
.LBB930:
.LBB931:
.LBB932:
	.loc 3 246 0
	mov	w0, 1
	str	w0, [x19,1624]
.L22:
.LBE932:
.LBE931:
.LBE930:
.LBE923:
.LBE922:
	.loc 1 149 0
	adrp	x1, jiffies
	.loc 1 149 0 is_stmt 0 discriminator 1
	add	x0, x19, 1632
	.loc 1 149 0
	ldr	x1, [x1,#:lo12:jiffies]
	.loc 1 149 0 discriminator 1
	add	x1, x1, 3
	bl	mod_timer
.LVL34:
.L15:
	.loc 1 150 0 is_stmt 1
	ldr	x19, [sp,16]
	.cfi_remember_state
	.cfi_restore 19
.LVL35:
	ldp	x29, x30, [sp], 32
	.cfi_restore 30
	.cfi_restore 29
	.cfi_def_cfa 31, 0
	ret
.LVL36:
.L37:
	.cfi_restore_state
.LBB937:
.LBB938:
.LBB939:
.LBB940:
.LBB941:
	.loc 3 218 0 discriminator 4
	ldr	w0, [x19,1624]
.LVL37:
.LBE941:
.LBE940:
.LBE939:
	.loc 1 108 0 discriminator 5
	cmp	w0, 2
	beq	.L25
	cmp	w0, 3
	beq	.L26
	cmp	w0, 1
	bne	.L22
	.loc 1 110 0
	bl	ktime_get
.LVL38:
.LBB942:
.LBB943:
.LBB944:
	.loc 6 233 0
	ldr	x2, [x19,1688]
	mov	x1, 50048
	movk	x1, 0x1c9, lsl 16
	add	x1, x2, x1
.LBE944:
.LBE943:
.LBB945:
.LBB946:
.LBB947:
	.loc 6 146 0
	cmp	x0, x1
	ble	.L22
.LBE947:
.LBE946:
.LBE945:
.LBE942:
.LBB948:
.LBB949:
.LBB950:
	.loc 3 246 0
	str	wzr, [x19,1624]
	b	.L15
.LVL39:
.L18:
.LBE950:
.LBE949:
.LBE948:
.LBE938:
.LBE937:
.LBB967:
.LBB968:
.LBB969:
	mov	w1, 3
	str	w1, [x19,1624]
	b	.L16
.LVL40:
.L21:
.LBE969:
.LBE968:
.LBE967:
.LBB970:
.LBB936:
.LBB933:
.LBB934:
.LBB935:
	mov	w0, 2
	str	w0, [x19,1624]
	b	.L22
.L25:
.LBE935:
.LBE934:
.LBE933:
.LBE936:
.LBE970:
.LBB971:
.LBB966:
	.loc 1 116 0
	bl	ktime_get
.LVL41:
.LBB953:
.LBB954:
.LBB955:
	.loc 6 233 0
	ldr	x1, [x19,1680]
	add	x1, x1, 9998336
	add	x1, x1, 1664
.LBE955:
.LBE954:
.LBB956:
.LBB957:
.LBB958:
	.loc 6 146 0
	cmp	x0, x1
	bgt	.L35
	b	.L22
.LVL42:
.L26:
.LBE958:
.LBE957:
.LBE956:
.LBE953:
	.loc 1 120 0
	bl	ktime_get
.LVL43:
.LBB959:
.LBB960:
.LBB961:
	.loc 6 233 0
	ldr	x2, [x19,1688]
	mov	x1, 11520
	movk	x1, 0x131, lsl 16
	add	x1, x2, x1
.LBE961:
.LBE960:
.LBB962:
.LBB963:
.LBB964:
	.loc 6 146 0
	cmp	x0, x1
	ble	.L22
.LBE964:
.LBE963:
.LBE962:
.LBE959:
.LBB965:
.LBB952:
.LBB951:
	.loc 3 246 0
	str	wzr, [x19,1624]
	b	.L15
.LBE951:
.LBE952:
.LBE965:
.LBE966:
.LBE971:
	.cfi_endproc
.LFE2913:
	.size	hisi_blk_mq_sync_burst_check_timer_expire, .-hisi_blk_mq_sync_burst_check_timer_expire
	.align	2
	.type	__hisi_blk_mq_complete_request_remote, %function
__hisi_blk_mq_complete_request_remote:
.LFB2954:
	.loc 1 1022 0
	.cfi_startproc
.LVL44:
	stp	x29, x30, [sp, -16]!
	.cfi_def_cfa_offset 16
	.cfi_offset 29, -16
	.cfi_offset 30, -8
	add	x29, sp, 0
	.cfi_def_cfa_register 29
	.loc 1 1024 0
	ldr	x2, [x0,88]
	tst	x2, 48
	beq	.L39
	.loc 1 1025 0
	ldr	x1, [x0,64]
	ldr	x1, [x1,256]
	blr	x1
.LVL45:
	.loc 1 1028 0
	ldp	x29, x30, [sp], 16
	.cfi_remember_state
	.cfi_restore 30
	.cfi_restore 29
	.cfi_def_cfa 31, 0
	ret
.LVL46:
.L39:
	.cfi_restore_state
	.loc 1 1027 0
	bl	hisi_blk_complete_request
.LVL47:
	.loc 1 1028 0
	ldp	x29, x30, [sp], 16
	.cfi_restore 29
	.cfi_restore 30
	.cfi_def_cfa 31, 0
	ret
	.cfi_endproc
.LFE2954:
	.size	__hisi_blk_mq_complete_request_remote, .-__hisi_blk_mq_complete_request_remote
	.align	2
	.type	hisi_blk_mq_async_sched_fifo_attempt_merge_bio, %function
hisi_blk_mq_async_sched_fifo_attempt_merge_bio:
.LFB2932:
	.loc 1 558 0
	.cfi_startproc
.LVL48:
	stp	x29, x30, [sp, -64]!
	.cfi_def_cfa_offset 64
	.cfi_offset 29, -64
	.cfi_offset 30, -56
	add	x29, sp, 0
	.cfi_def_cfa_register 29
	stp	x21, x22, [sp,32]
	str	x23, [sp,48]
	.cfi_offset 21, -32
	.cfi_offset 22, -24
	.cfi_offset 23, -16
	.loc 1 560 0 discriminator 1
	add	x22, x1, 1720
	.loc 1 558 0
	stp	x19, x20, [sp,16]
	.cfi_offset 19, -48
	.cfi_offset 20, -40
	.loc 1 558 0
	mov	x23, x1
	mov	x21, x0
.LBB972:
	.loc 1 560 0
	ldr	x19, [x1,1728]
.LVL49:
.LBE972:
	.loc 1 560 0 is_stmt 0 discriminator 1
	cmp	x22, x19
.LBB973:
	.loc 1 560 0
	sub	x19, x19, #120
.LVL50:
.LBE973:
	.loc 1 560 0 discriminator 1
	bne	.L52
	b	.L46
.LVL51:
.L48:
.LBB974:
	.loc 1 560 0 discriminator 2
	ldr	x19, [x19,128]
.LVL52:
.LBE974:
	.loc 1 560 0 discriminator 1
	cmp	x22, x19
.LBB975:
	.loc 1 560 0 discriminator 2
	sub	x19, x19, #120
.LVL53:
.LBE975:
	.loc 1 560 0 discriminator 1
	beq	.L46
.L52:
.LBB976:
	.loc 1 562 0 is_stmt 1
	mov	x0, x19
.LVL54:
	mov	x1, x21
	bl	blk_rq_merge_ok
.LVL55:
	uxtb	w20, w0
	cbz	w20, .L48
	.loc 1 564 0
	mov	x1, x21
	mov	x0, x19
	bl	blk_try_merge
.LVL56:
	.loc 1 565 0
	cmp	w0, 2
	beq	.L56
	.loc 1 568 0
	cmp	w0, 1
	bne	.L48
	.loc 1 569 0
	mov	x1, x19
	mov	x0, x23
.LVL57:
	mov	x2, x21
	bl	bio_attempt_front_merge
.LVL58:
	uxtb	w0, w0
	cbz	w0, .L48
.L43:
.LBE976:
	.loc 1 574 0
	mov	w0, w20
	ldr	x23, [sp,48]
	.cfi_remember_state
	.cfi_restore 23
.LVL59:
	ldp	x19, x20, [sp,16]
	.cfi_restore 20
	.cfi_restore 19
.LVL60:
	ldp	x21, x22, [sp,32]
	.cfi_restore 22
	.cfi_restore 21
.LVL61:
	ldp	x29, x30, [sp], 64
	.cfi_restore 30
	.cfi_restore 29
	.cfi_def_cfa 31, 0
	ret
.LVL62:
.L56:
	.cfi_restore_state
.LBB977:
	.loc 1 566 0
	mov	x1, x19
	mov	x0, x23
.LVL63:
	mov	x2, x21
	bl	bio_attempt_back_merge
.LVL64:
	uxtb	w0, w0
	cbnz	w0, .L43
.LBE977:
.LBB978:
	.loc 1 560 0 discriminator 2
	ldr	x19, [x19,128]
.LVL65:
.LBE978:
	.loc 1 560 0 is_stmt 0 discriminator 1
	cmp	x22, x19
.LBB979:
	.loc 1 560 0 discriminator 2
	sub	x19, x19, #120
.LVL66:
.LBE979:
	.loc 1 560 0 discriminator 1
	bne	.L52
.LVL67:
.L46:
	.loc 1 573 0 is_stmt 1
	mov	w20, 0
	.loc 1 574 0
	ldr	x23, [sp,48]
	.cfi_restore 23
.LVL68:
	mov	w0, w20
.LVL69:
	ldp	x19, x20, [sp,16]
	.cfi_restore 19
	.cfi_restore 20
.LVL70:
	ldp	x21, x22, [sp,32]
	.cfi_restore 21
	.cfi_restore 22
.LVL71:
	ldp	x29, x30, [sp], 64
	.cfi_restore 29
	.cfi_restore 30
	.cfi_def_cfa 31, 0
	ret
	.cfi_endproc
.LFE2932:
	.size	hisi_blk_mq_async_sched_fifo_attempt_merge_bio, .-hisi_blk_mq_async_sched_fifo_attempt_merge_bio
	.align	2
	.type	hisi_blk_mq_async_fwb_mode_inflight_limit_calc, %function
hisi_blk_mq_async_fwb_mode_inflight_limit_calc:
.LFB2944:
	.loc 1 850 0
	.cfi_startproc
.LVL72:
	stp	x29, x30, [sp, -32]!
	.cfi_def_cfa_offset 32
	.cfi_offset 29, -32
	.cfi_offset 30, -24
	add	x29, sp, 0
	.cfi_def_cfa_register 29
	str	x19, [sp,16]
	.cfi_offset 19, -16
	.loc 1 850 0
	mov	x19, x0
.LBB1006:
.LBB1007:
.LBB1008:
	.loc 3 218 0 discriminator 4
	ldr	w0, [x0,1624]
.LVL73:
.LBE1008:
.LBE1007:
.LBE1006:
	.loc 1 851 0 discriminator 5
	cmp	w0, 3
	bls	.L78
.L59:
.LBB1009:
.LBB1010:
	.loc 1 815 0
	ldr	w0, [x19,2684]
	cmp	w0, 16
	beq	.L57
	.loc 1 817 0
	mov	w0, 16
	str	w0, [x19,2684]
	.loc 1 818 0
	bl	ktime_get
.LVL74:
	str	x0, [x19,2688]
.L57:
.LBE1010:
.LBE1009:
	.loc 1 872 0
	ldr	x19, [sp,16]
	.cfi_remember_state
	.cfi_restore 19
.LVL75:
	ldp	x29, x30, [sp], 32
	.cfi_restore 30
	.cfi_restore 29
	.cfi_def_cfa 31, 0
	ret
.LVL76:
.L78:
	.cfi_restore_state
	.loc 1 851 0 discriminator 5
	adrp	x1, .L60
	add	x1, x1, :lo12:.L60
	ldrb	w0, [x1,w0,uxtw]
	adr	x1, .Lrtx60
	add	x0, x1, w0, sxtb #2
	br	x0
.Lrtx60:
	.section	.rodata
	.align	0
	.align	2
.L60:
	.byte	(.L59 - .Lrtx60) / 4
	.byte	(.L61 - .Lrtx60) / 4
	.byte	(.L62 - .Lrtx60) / 4
	.byte	(.L63 - .Lrtx60) / 4
	.text
.L62:
.LBB1011:
.LBB1012:
	.loc 1 815 0
	ldr	w0, [x19,2684]
	cmp	w0, 1
	beq	.L57
	.loc 1 817 0
	mov	w0, 1
	str	w0, [x19,2684]
	.loc 1 818 0
	bl	ktime_get
.LVL77:
	str	x0, [x19,2688]
.LBE1012:
.LBE1011:
	.loc 1 872 0
	ldr	x19, [sp,16]
	.cfi_remember_state
	.cfi_restore 19
.LVL78:
	ldp	x29, x30, [sp], 32
	.cfi_restore 29
	.cfi_restore 30
	.cfi_def_cfa 31, 0
	ret
.LVL79:
.L61:
	.cfi_restore_state
.LBB1013:
.LBB1014:
	.loc 1 815 0
	ldr	w0, [x19,2684]
	cmp	w0, 3
	beq	.L57
	.loc 1 817 0
	mov	w0, 3
	str	w0, [x19,2684]
	.loc 1 818 0
	bl	ktime_get
.LVL80:
	str	x0, [x19,2688]
.LBE1014:
.LBE1013:
	.loc 1 872 0
	ldr	x19, [sp,16]
	.cfi_remember_state
	.cfi_restore 19
.LVL81:
	ldp	x29, x30, [sp], 32
	.cfi_restore 29
	.cfi_restore 30
	.cfi_def_cfa 31, 0
	ret
.LVL82:
.L63:
	.cfi_restore_state
.LBB1015:
.LBB1016:
	.loc 1 815 0
	ldr	w0, [x19,2684]
	cmp	w0, 12
	beq	.L57
	.loc 1 817 0
	mov	w0, 12
	str	w0, [x19,2684]
	.loc 1 818 0
	bl	ktime_get
.LVL83:
	str	x0, [x19,2688]
.LBE1016:
.LBE1015:
	.loc 1 872 0
	ldr	x19, [sp,16]
	.cfi_restore 19
.LVL84:
	ldp	x29, x30, [sp], 32
	.cfi_restore 29
	.cfi_restore 30
	.cfi_def_cfa 31, 0
	ret
	.cfi_endproc
.LFE2944:
	.size	hisi_blk_mq_async_fwb_mode_inflight_limit_calc, .-hisi_blk_mq_async_fwb_mode_inflight_limit_calc
	.align	2
	.global	hisi_blk_mq_queue_rq
	.type	hisi_blk_mq_queue_rq, %function
hisi_blk_mq_queue_rq:
.LFB2919:
	.loc 1 299 0
	.cfi_startproc
.LVL85:
	stp	x29, x30, [sp, -48]!
	.cfi_def_cfa_offset 48
	.cfi_offset 29, -48
	.cfi_offset 30, -40
	add	x29, sp, 0
	.cfi_def_cfa_register 29
	stp	x19, x20, [sp,16]
	.cfi_offset 19, -32
	.cfi_offset 20, -24
	.loc 1 299 0
	mov	x19, x0
	mov	x0, x1
.LVL86:
	.loc 1 300 0
	ldrb	w4, [x3,624]
	cbz	w4, .L80
	.loc 1 300 0 is_stmt 0 discriminator 1
	ldr	w1, [x19,96]
	cmp	w1, 1
	bne	.L80
	ldr	x4, [x19,88]
.LBB1017:
.LBB1018:
.LBB1019:
.LBB1020:
	.loc 1 181 0 is_stmt 1
	tbz	x4, 4, .L83
	.loc 1 182 0
	tbnz	x4, 5, .L95
.LBB1021:
.LBB1022:
	.file 7 "/mnt/disk/jslave/ci/workspace/BKL_L04_B100_chipset/opensource/component_code/vendor/huawei/extra/build/build_script/kirin_kernel_release/kernel/arch/arm64/include/asm/atomic_ll_sc.h"
	.loc 7 90 0
	add	x5, x3, 720
#APP
// 90 "/mnt/disk/jslave/ci/workspace/BKL_L04_B100_chipset/opensource/component_code/vendor/huawei/extra/build/build_script/kirin_kernel_release/kernel/arch/arm64/include/asm/atomic_ll_sc.h" 1
	// atomic_add_return
	prfm	pstl1strm, [x5]
1:	ldxr	w4, [x5]
	add	w4, w4, 1
	stlxr	w1, w4, [x5]
	cbnz	w1, 1b
	dmb ish
// 0 "" 2
.LVL87:
#NO_APP
.LBE1022:
.LBE1021:
	.loc 1 190 0
	ldr	w1, [x3,724]
.LVL88:
	cmp	w4, w1
	bgt	.L88
.LVL89:
.L85:
.LBE1020:
.LBE1019:
	.loc 1 279 0
	ldr	x4, [x3,288]
.LVL90:
	mov	x1, x2
.LVL91:
	str	x3, [x29,40]
	ldr	x2, [x4]
.LVL92:
	blr	x2
.LVL93:
	mov	w20, w0
.LVL94:
	.loc 1 281 0
	mov	w1, 8
	mov	x0, x19
	bl	req_latency_check
.LVL95:
	.loc 1 283 0
	ldr	x3, [x29,40]
.LVL96:
	cbnz	w20, .L91
	mov	w0, 0
.LVL97:
.L82:
.LBE1018:
.LBE1017:
	.loc 1 303 0
	ldp	x19, x20, [sp,16]
	.cfi_remember_state
	.cfi_restore 20
	.cfi_restore 19
.LVL98:
	ldp	x29, x30, [sp], 48
	.cfi_restore 30
	.cfi_restore 29
	.cfi_def_cfa 31, 0
	ret
.LVL99:
.L80:
	.cfi_restore_state
	.loc 1 301 0
	ldr	x3, [x3,288]
.LVL100:
	mov	x1, x2
	ldr	x2, [x3]
.LVL101:
	blr	x2
.LVL102:
	.loc 1 303 0
	ldp	x19, x20, [sp,16]
	.cfi_remember_state
	.cfi_restore 19
	.cfi_restore 20
.LVL103:
	ldp	x29, x30, [sp], 48
	.cfi_restore 29
	.cfi_restore 30
	.cfi_def_cfa 31, 0
	ret
.LVL104:
.L83:
	.cfi_restore_state
.LBB1054:
.LBB1052:
.LBB1029:
.LBB1027:
.LBB1023:
.LBB1024:
	.loc 7 90 0
	add	x5, x3, 2680
#APP
// 90 "/mnt/disk/jslave/ci/workspace/BKL_L04_B100_chipset/opensource/component_code/vendor/huawei/extra/build/build_script/kirin_kernel_release/kernel/arch/arm64/include/asm/atomic_ll_sc.h" 1
	// atomic_add_return
	prfm	pstl1strm, [x5]
1:	ldxr	w4, [x5]
	add	w4, w4, 1
	stlxr	w1, w4, [x5]
	cbnz	w1, 1b
	dmb ish
// 0 "" 2
.LVL105:
#NO_APP
.LBE1024:
.LBE1023:
	.loc 1 205 0
	ldr	w1, [x3,2684]
.LVL106:
	cmp	w4, w1
	ble	.L85
.LVL107:
.L88:
	.loc 1 195 0
	mov	w0, 2
.LVL108:
	mov	w20, 1
.LVL109:
	str	w0, [x19,616]
.L87:
	ldr	x0, [x19,88]
.LBE1027:
.LBE1029:
.LBB1030:
.LBB1031:
	.loc 1 232 0
	tbz	x0, 4, .L89
	.loc 1 233 0
	tbnz	x0, 5, .L96
.LBB1032:
.LBB1033:
	.loc 7 91 0
	add	x2, x3, 720
.LVL110:
#APP
// 91 "/mnt/disk/jslave/ci/workspace/BKL_L04_B100_chipset/opensource/component_code/vendor/huawei/extra/build/build_script/kirin_kernel_release/kernel/arch/arm64/include/asm/atomic_ll_sc.h" 1
	// atomic_sub
	prfm	pstl1strm, [x2]
1:	ldxr	w0, [x2]
	sub	w0, w0, 1
	stxr	w1, w0, [x2]
	cbnz	w1, 1b
// 0 "" 2
.LVL111:
#NO_APP
.LBE1033:
.LBE1032:
.LBE1031:
.LBE1030:
	.loc 1 295 0
	mov	w0, w20
.LVL112:
.LBE1052:
.LBE1054:
	.loc 1 303 0
	ldp	x19, x20, [sp,16]
	.cfi_remember_state
	.cfi_restore 19
	.cfi_restore 20
.LVL113:
	ldp	x29, x30, [sp], 48
	.cfi_restore 29
	.cfi_restore 30
	.cfi_def_cfa 31, 0
	ret
.LVL114:
.L91:
	.cfi_restore_state
.LBB1055:
.LBB1053:
	.loc 1 286 0
	mov	w0, 1
	str	w0, [x19,616]
.LBB1040:
.LBB1041:
.LBB1042:
	.loc 3 218 0 discriminator 4
	ldr	w2, [x3,672]
.LBE1042:
.LBE1041:
.LBE1040:
.LBB1043:
.LBB1044:
.LBB1045:
	ldr	w0, [x3,720]
.LBE1045:
.LBE1044:
.LBE1043:
.LBB1046:
.LBB1047:
.LBB1048:
	ldr	w1, [x3,2680]
.LBE1048:
.LBE1047:
.LBE1046:
	.loc 1 288 0 discriminator 11
	add	w0, w2, w0
	.loc 1 288 0 is_stmt 0 discriminator 17
	add	w0, w0, w1
	cmp	w0, 8
	bgt	.L87
	.loc 1 289 0 is_stmt 1
	mov	w0, 3
	str	w0, [x19,616]
	b	.L87
.LVL115:
.L95:
.LBB1049:
.LBB1028:
.LBB1025:
.LBB1026:
	.loc 7 90 0
	add	x5, x3, 672
#APP
// 90 "/mnt/disk/jslave/ci/workspace/BKL_L04_B100_chipset/opensource/component_code/vendor/huawei/extra/build/build_script/kirin_kernel_release/kernel/arch/arm64/include/asm/atomic_ll_sc.h" 1
	// atomic_add
	prfm	pstl1strm, [x5]
1:	ldxr	w1, [x5]
	add	w1, w1, 1
	stxr	w4, w1, [x5]
	cbnz	w4, 1b
// 0 "" 2
.LVL116:
#NO_APP
	b	.L85
.LVL117:
.L89:
.LBE1026:
.LBE1025:
.LBE1028:
.LBE1049:
.LBB1050:
.LBB1038:
.LBB1034:
.LBB1035:
	.loc 7 91 0
	add	x2, x3, 2680
.LVL118:
#APP
// 91 "/mnt/disk/jslave/ci/workspace/BKL_L04_B100_chipset/opensource/component_code/vendor/huawei/extra/build/build_script/kirin_kernel_release/kernel/arch/arm64/include/asm/atomic_ll_sc.h" 1
	// atomic_sub
	prfm	pstl1strm, [x2]
1:	ldxr	w0, [x2]
	sub	w0, w0, 1
	stxr	w1, w0, [x2]
	cbnz	w1, 1b
// 0 "" 2
.LVL119:
#NO_APP
.LBE1035:
.LBE1034:
.LBE1038:
.LBE1050:
	.loc 1 295 0
	mov	w0, w20
.LVL120:
	b	.L82
.LVL121:
.L96:
.LBB1051:
.LBB1039:
.LBB1036:
.LBB1037:
	.loc 7 91 0
	add	x2, x3, 672
.LVL122:
#APP
// 91 "/mnt/disk/jslave/ci/workspace/BKL_L04_B100_chipset/opensource/component_code/vendor/huawei/extra/build/build_script/kirin_kernel_release/kernel/arch/arm64/include/asm/atomic_ll_sc.h" 1
	// atomic_sub
	prfm	pstl1strm, [x2]
1:	ldxr	w0, [x2]
	sub	w0, w0, 1
	stxr	w1, w0, [x2]
	cbnz	w1, 1b
// 0 "" 2
.LVL123:
#NO_APP
.LBE1037:
.LBE1036:
.LBE1039:
.LBE1051:
	.loc 1 295 0
	mov	w0, w20
.LVL124:
	b	.L82
.LBE1053:
.LBE1055:
	.cfi_endproc
.LFE2919:
	.size	hisi_blk_mq_queue_rq, .-hisi_blk_mq_queue_rq
	.align	2
	.type	hisi_blk_mq_sync_dispatch, %function
hisi_blk_mq_sync_dispatch:
.LFB2926:
	.loc 1 475 0
	.cfi_startproc
.LVL125:
	stp	x29, x30, [sp, -112]!
	.cfi_def_cfa_offset 112
	.cfi_offset 29, -112
	.cfi_offset 30, -104
	add	x29, sp, 0
	.cfi_def_cfa_register 29
	stp	x23, x24, [sp,48]
	.cfi_offset 23, -64
	.cfi_offset 24, -56
	adrp	x24, __stack_chk_guard
	add	x23, x0, 696
	stp	x21, x22, [sp,32]
	stp	x19, x20, [sp,16]
	.cfi_offset 21, -80
	.cfi_offset 22, -72
	.cfi_offset 19, -96
	.cfi_offset 20, -88
	add	x21, x0, 656
	mov	x20, x0
	.loc 1 489 0
	add	x22, x0, 680
	.loc 1 475 0
	ldr	x0, [x24,#:lo12:__stack_chk_guard]
.LVL126:
	str	x25, [sp,64]
	.cfi_offset 25, -48
	.loc 1 511 0
	mov	w25, -5
	.loc 1 481 0
	str	xzr, [x29,88]
	.loc 1 475 0
	str	x0, [x29,104]
.LVL127:
.L103:
	.loc 1 486 0 discriminator 1
	mov	x0, x23
.LVL128:
	bl	_raw_spin_lock_irqsave
.LVL129:
.LBB1056:
.LBB1057:
	.loc 2 216 0
	ldr	x19, [x21]
.LBE1057:
.LBE1056:
	.loc 1 486 0 discriminator 1
	mov	x1, x0
.LVL130:
.LBB1060:
.LBB1058:
	.loc 2 217 0
	cmp	x19, x21
	beq	.L113
.L98:
.LBE1058:
.LBE1060:
	.loc 1 495 0
	cbz	x19, .L100
.L115:
.LBB1061:
.LBB1062:
.LBB1063:
	.loc 2 102 0
	ldr	x3, [x19]
.LBE1063:
.LBE1062:
.LBE1061:
.LBB1073:
.LBB1074:
	.loc 4 362 0
	mov	x0, x23
.LBE1074:
.LBE1073:
.LBB1076:
.LBB1070:
.LBB1069:
	.loc 2 102 0
	ldr	x2, [x19,8]
.LBB1064:
.LBB1065:
	.loc 2 89 0
	str	x2, [x3,8]
.LBB1066:
.LBB1067:
.LBB1068:
	.loc 3 247 0
	str	x3, [x2]
.LBE1068:
.LBE1067:
.LBE1066:
.LBE1065:
.LBE1064:
.LBE1069:
.LBE1070:
.LBB1071:
.LBB1072:
	.loc 2 27 0
	str	x19, [x19]
	.loc 2 28 0
	str	x19, [x19,8]
.LBE1072:
.LBE1071:
.LBE1076:
.LBB1077:
.LBB1075:
	.loc 4 362 0
	bl	_raw_spin_unlock_irqrestore
.LVL131:
.LBE1075:
.LBE1077:
	.loc 1 505 0
	ldr	x2, [x20,288]
	mov	x0, x20
	ldr	x1, [x19,80]
	ldr	x2, [x2,8]
	ldr	w1, [x1,64]
	blr	x2
.LVL132:
	.loc 1 507 0
	mov	x1, x0
	add	x2, x29, 80
	mov	x0, x19
.LVL133:
	mov	x3, x20
	.loc 1 506 0
	str	x19, [x29,80]
	.loc 1 507 0
	bl	hisi_blk_mq_queue_rq
.LVL134:
	.loc 1 508 0
	cbz	w0, .L103
	.loc 1 510 0
	cmp	w0, 2
	beq	.L114
	.loc 1 515 0
	mov	x0, x19
.LVL135:
	bl	__blk_mq_requeue_request
.LVL136:
	.loc 1 516 0
	mov	x1, x20
	mov	x0, x19
	bl	hisi_blk_mq_insert_sync_list
.LVL137:
.LBB1078:
.LBB1079:
	.loc 1 314 0
	adrp	x1, kti_offset
	.loc 1 315 0
	ldrb	w3, [x20,2696]
.LBB1080:
.LBB1081:
	.loc 5 82 0
#APP
// 82 "/mnt/disk/jslave/ci/workspace/BKL_L04_B100_chipset/opensource/component_code/vendor/huawei/extra/build/build_script/kirin_kernel_release/kernel/arch/arm64/include/asm/thread_info.h" 1
	mrs x0, sp_el0
// 0 "" 2
.LVL138:
#NO_APP
.LBE1081:
.LBE1080:
	.loc 1 314 0
	ldr	x1, [x1,#:lo12:kti_offset]
	add	x0, x0, x1
.LVL139:
	.loc 1 315 0
	adrp	x1, .LANCHOR0+8
	.loc 1 314 0
	ldr	w2, [x0,28]
	.loc 1 315 0
	ldr	x1, [x1,#:lo12:.LANCHOR0+8]
.LVL140:
	mov	w0, w2
	sxtw	x2, w2
	lsl	x4, x2, 7
	sub	x2, x4, x2, lsl 4
.LVL141:
	add	x2, x20, x2
	add	x2, x2, 728
	bl	queue_delayed_work_on
.LVL142:
	b	.L102
.LVL143:
.L113:
.LBE1079:
.LBE1078:
.LBB1082:
.LBB1059:
	.loc 2 217 0 discriminator 1
	ldr	x0, [x21,8]
	cmp	x21, x0
	beq	.L99
	mov	x19, x21
.LBE1059:
.LBE1082:
	.loc 1 495 0
	cbnz	x19, .L115
.L100:
.LBB1083:
.LBB1084:
	.loc 4 362 0
	mov	x0, x23
	bl	_raw_spin_unlock_irqrestore
.LVL144:
.L102:
.LBE1084:
.LBE1083:
	.loc 1 523 0
	ldr	x2, [x29,104]
	mov	w0, 1
	ldr	x1, [x24,#:lo12:__stack_chk_guard]
	cmp	x2, x1
	bne	.L116
	ldp	x19, x20, [sp,16]
	.cfi_remember_state
	.cfi_restore 20
	.cfi_restore 19
.LVL145:
	ldp	x21, x22, [sp,32]
	.cfi_restore 22
	.cfi_restore 21
	ldp	x23, x24, [sp,48]
	.cfi_restore 24
	.cfi_restore 23
	ldr	x25, [sp,64]
	.cfi_restore 25
	ldp	x29, x30, [sp], 112
	.cfi_restore 30
	.cfi_restore 29
	.cfi_def_cfa 31, 0
	ret
.LVL146:
.L99:
	.cfi_restore_state
.LBB1085:
.LBB1086:
	.loc 2 216 0
	ldr	x19, [x22]
	.loc 2 217 0
	cmp	x22, x19
	bne	.L98
	.loc 2 217 0 is_stmt 0 discriminator 1
	ldr	x0, [x22,8]
	cmp	x22, x0
	bne	.L98
	b	.L100
.LVL147:
.L114:
.LBE1086:
.LBE1085:
	.loc 1 511 0 is_stmt 1
	str	w25, [x19,516]
	.loc 1 512 0
	mov	x0, x19
.LVL148:
	mov	w1, -5
	bl	blk_mq_end_request
.LVL149:
	.loc 1 513 0
	b	.L103
.L116:
	.loc 1 523 0
	bl	__stack_chk_fail
.LVL150:
	.cfi_endproc
.LFE2926:
	.size	hisi_blk_mq_sync_dispatch, .-hisi_blk_mq_sync_dispatch
	.align	2
	.type	hisi_blk_mq_io_guard_work_fn, %function
hisi_blk_mq_io_guard_work_fn:
.LFB2960:
	.loc 1 1123 0
	.cfi_startproc
.LVL151:
	stp	x29, x30, [sp, -48]!
	.cfi_def_cfa_offset 48
	.cfi_offset 29, -48
	.cfi_offset 30, -40
	add	x29, sp, 0
	.cfi_def_cfa_register 29
	stp	x21, x22, [sp,32]
	.cfi_offset 21, -16
	.cfi_offset 22, -8
.LBB1119:
.LBB1120:
	.loc 4 302 0
	adrp	x22, .LANCHOR1
	add	x21, x22, :lo12:.LANCHOR1
	add	x0, x21, 8
.LVL152:
.LBE1120:
.LBE1119:
	.loc 1 1123 0
	stp	x19, x20, [sp,16]
	.cfi_offset 19, -32
	.cfi_offset 20, -24
.LBB1122:
.LBB1123:
	.loc 4 347 0
	mov	x20, x0
.LBE1123:
.LBE1122:
.LBB1125:
.LBB1121:
	.loc 4 302 0
	bl	_raw_spin_lock
.LVL153:
.LBE1121:
.LBE1125:
.LBB1126:
	.loc 1 1127 0
	ldr	x19, [x21,32]!
.LVL154:
.LBE1126:
	.loc 1 1127 0 is_stmt 0 discriminator 1
	cmp	x19, x21
.LBB1127:
	.loc 1 1127 0
	sub	x19, x19, #2704
.LVL155:
.LBE1127:
	.loc 1 1127 0 discriminator 1
	bne	.L127
	b	.L122
.L119:
.LBB1128:
.LBB1129:
.LBB1130:
.LBB1131:
.LBB1132:
	.loc 3 218 0 is_stmt 1 discriminator 4
	ldr	w0, [x19,616]
.LBE1132:
.LBE1131:
.LBE1130:
	.loc 1 1117 0 discriminator 5
	cbz	w0, .L120
.LBB1133:
.LBB1134:
.LBB1135:
	.loc 3 218 0 discriminator 4
	ldr	w0, [x19,2680]
.LBE1135:
.LBE1134:
.LBE1133:
	.loc 1 1117 0 discriminator 12
	cbnz	w0, .L120
	.loc 1 1118 0
	mov	x0, x19
	bl	hisi_blk_mq_run_async_list
.LVL156:
.L120:
.LBE1129:
.LBE1128:
.LBB1149:
.LBB1150:
	.loc 4 302 0
	mov	x0, x20
	bl	_raw_spin_lock
.LVL157:
.LBE1150:
.LBE1149:
.LBB1151:
	.loc 1 1127 0 discriminator 3
	ldr	x19, [x19,2704]
.LVL158:
.LBE1151:
	.loc 1 1127 0 is_stmt 0 discriminator 1
	cmp	x19, x21
.LBB1152:
	.loc 1 1127 0 discriminator 3
	sub	x19, x19, #2704
.LVL159:
.LBE1152:
	.loc 1 1127 0 discriminator 1
	beq	.L122
.L127:
.LBB1153:
.LBB1124:
	.loc 4 347 0 is_stmt 1
	mov	x0, x20
	bl	_raw_spin_unlock
.LVL160:
.LBE1124:
.LBE1153:
.LBB1154:
.LBB1148:
.LBB1136:
.LBB1137:
.LBB1138:
	.loc 3 218 0 discriminator 4
	ldr	w0, [x19,620]
.LBE1138:
.LBE1137:
.LBE1136:
.LBB1139:
.LBB1140:
.LBB1141:
	ldr	w1, [x19,612]
.LBE1141:
.LBE1140:
.LBE1139:
	.loc 1 1114 0 discriminator 11
	cmn	w0, w1
	beq	.L119
.LBB1142:
.LBB1143:
.LBB1144:
	.loc 3 218 0 discriminator 4
	ldr	w0, [x19,672]
.LBE1144:
.LBE1143:
.LBE1142:
.LBB1145:
.LBB1146:
.LBB1147:
	ldr	w1, [x19,720]
.LBE1147:
.LBE1146:
.LBE1145:
	.loc 1 1114 0 discriminator 24
	cmn	w0, w1
	bne	.L119
	.loc 1 1115 0
	mov	x0, x19
	bl	hisi_blk_mq_sync_dispatch
.LVL161:
	b	.L119
.L122:
.LBE1148:
.LBE1154:
.LBB1155:
.LBB1156:
	.loc 4 347 0
	add	x0, x22, :lo12:.LANCHOR1
	add	x0, x0, 8
	bl	_raw_spin_unlock
.LVL162:
.LBE1156:
.LBE1155:
	.loc 1 1133 0
	adrp	x1, .LANCHOR0
.LBB1157:
.LBB1158:
	.file 8 "/mnt/disk/jslave/ci/workspace/BKL_L04_B100_chipset/opensource/component_code/vendor/huawei/extra/build/build_script/kirin_kernel_release/kernel/include/linux/workqueue.h"
	.loc 8 489 0
	mov	x3, 500
.LBE1158:
.LBE1157:
	.loc 1 1133 0
	add	x1, x1, :lo12:.LANCHOR0
.LBB1160:
.LBB1159:
	.loc 8 489 0
	mov	w0, 8
	add	x2, x1, 24
	ldr	x1, [x1,16]
	bl	queue_delayed_work_on
.LVL163:
.LBE1159:
.LBE1160:
	.loc 1 1134 0
	ldp	x19, x20, [sp,16]
	.cfi_restore 20
	.cfi_restore 19
.LVL164:
	ldp	x21, x22, [sp,32]
	.cfi_restore 22
	.cfi_restore 21
	ldp	x29, x30, [sp], 48
	.cfi_restore 30
	.cfi_restore 29
	.cfi_def_cfa 31, 0
	ret
	.cfi_endproc
.LFE2960:
	.size	hisi_blk_mq_io_guard_work_fn, .-hisi_blk_mq_io_guard_work_fn
	.align	2
	.type	hisi_blk_mq_sync_io_dispatch_work_fn, %function
hisi_blk_mq_sync_io_dispatch_work_fn:
.LFB2927:
	.loc 1 526 0
	.cfi_startproc
.LVL165:
	stp	x29, x30, [sp, -16]!
	.cfi_def_cfa_offset 16
	.cfi_offset 29, -16
	.cfi_offset 30, -8
	add	x29, sp, 0
	.cfi_def_cfa_register 29
	.loc 1 528 0
	ldr	x0, [x0,96]
.LVL166:
	bl	hisi_blk_mq_sync_dispatch
.LVL167:
	.loc 1 529 0
	ldp	x29, x30, [sp], 16
	.cfi_restore 30
	.cfi_restore 29
	.cfi_def_cfa 31, 0
	ret
	.cfi_endproc
.LFE2927:
	.size	hisi_blk_mq_sync_io_dispatch_work_fn, .-hisi_blk_mq_sync_io_dispatch_work_fn
	.align	2
	.type	hisi_blk_mq_async_io_dispatch_work_fn, %function
hisi_blk_mq_async_io_dispatch_work_fn:
.LFB2949:
	.loc 1 974 0
	.cfi_startproc
.LVL168:
	stp	x29, x30, [sp, -144]!
	.cfi_def_cfa_offset 144
	.cfi_offset 29, -144
	.cfi_offset 30, -136
	add	x29, sp, 0
	.cfi_def_cfa_register 29
	stp	x27, x28, [sp,80]
	.cfi_offset 27, -64
	.cfi_offset 28, -56
	adrp	x28, __stack_chk_guard
.LBB1234:
.LBB1235:
.LBB1236:
.LBB1237:
.LBB1238:
	.loc 1 905 0
	mov	w27, 2
.LBE1238:
.LBE1237:
.LBE1236:
.LBE1235:
.LBE1234:
	.loc 1 974 0
	stp	x25, x26, [sp,64]
	stp	x21, x22, [sp,32]
	stp	x19, x20, [sp,16]
	stp	x23, x24, [sp,48]
	.cfi_offset 25, -80
	.cfi_offset 26, -72
	.cfi_offset 21, -112
	.cfi_offset 22, -104
	.cfi_offset 19, -128
	.cfi_offset 20, -120
	.cfi_offset 23, -96
	.cfi_offset 24, -88
.LBB1340:
.LBB1336:
.LBB1332:
.LBB1313:
.LBB1308:
.LBB1239:
.LBB1240:
	.loc 1 883 0
	adrp	x25, vm_dirty_ratio
.LBE1240:
.LBE1239:
.LBE1308:
.LBE1313:
.LBE1332:
	.loc 1 940 0
	str	xzr, [x29,120]
.LBE1336:
.LBE1340:
	.loc 1 976 0
	ldr	x20, [x0,96]
	adrp	x26, vm_stat
	.loc 1 974 0
	ldr	x0, [x28,#:lo12:__stack_chk_guard]
.LVL169:
.LBB1341:
.LBB1337:
.LBB1333:
.LBB1314:
.LBB1309:
.LBB1272:
.LBB1269:
	.loc 1 883 0
	add	x25, x25, :lo12:vm_dirty_ratio
.LBE1269:
.LBE1272:
.LBE1309:
.LBE1314:
.LBE1333:
.LBE1337:
.LBE1341:
	.loc 1 974 0
	str	x0, [x29,136]
.LBB1342:
.LBB1338:
.LBB1334:
.LBB1315:
.LBB1310:
.LBB1273:
.LBB1274:
	.loc 1 823 0 discriminator 5
	adrp	x0, .L142
	add	x0, x0, :lo12:.L142
	add	x21, x20, 1760
	str	x0, [x29,96]
	b	.L134
.LVL170:
.L137:
.LBE1274:
.LBE1273:
.LBB1298:
.LBB1299:
.LBB1300:
	.loc 1 815 0
	ldr	w0, [x20,2684]
.LBE1300:
.LBE1299:
.LBE1298:
	.loc 1 905 0
	str	w27, [x20,1712]
.LBB1303:
.LBB1302:
.LBB1301:
	.loc 1 815 0
	cmp	w0, 16
	beq	.L148
	.loc 1 817 0
	mov	w0, 16
.LVL171:
.L174:
	str	w0, [x20,2684]
	.loc 1 818 0
	bl	ktime_get
.LVL172:
	str	x0, [x20,2688]
.L148:
.LBE1301:
.LBE1302:
.LBE1303:
.LBE1310:
.LBE1315:
.LBB1316:
.LBB1317:
	.loc 1 776 0 discriminator 1
	mov	x0, x21
	bl	_raw_spin_lock_irqsave
.LVL173:
	str	x0, [x29,104]
	.loc 1 777 0
	ldr	x2, [x20,648]
	mov	x0, x20
.LVL174:
	ldr	x2, [x2,16]
	blr	x2
.LVL175:
	mov	x19, x0
.LVL176:
.LBB1318:
.LBB1319:
	.loc 4 362 0
	ldr	x1, [x29,104]
.LVL177:
	mov	x0, x21
	bl	_raw_spin_unlock_irqrestore
.LVL178:
.LBE1319:
.LBE1318:
.LBE1317:
.LBE1316:
	.loc 1 948 0
	cbz	x19, .L133
	.loc 1 951 0
	ldr	x2, [x20,288]
	mov	x0, x20
	ldr	x1, [x19,80]
	ldr	x2, [x2,8]
	ldr	w1, [x1,64]
	blr	x2
.LVL179:
	.loc 1 954 0
	mov	x1, x0
	add	x2, x29, 112
	mov	x0, x19
.LVL180:
	mov	x3, x20
	.loc 1 952 0
	str	x19, [x29,112]
	.loc 1 954 0
	bl	hisi_blk_mq_queue_rq
.LVL181:
	.loc 1 956 0
	cbnz	w0, .L153
.LBB1320:
.LBB1321:
	.file 9 "/mnt/disk/jslave/ci/workspace/BKL_L04_B100_chipset/opensource/component_code/vendor/huawei/extra/build/build_script/kirin_kernel_release/kernel/include/linux/blkdev.h"
	.loc 9 1330 0
	ldr	w0, [x19,320]
.LVL182:
.LBE1321:
.LBE1320:
	.loc 1 957 0
	ldr	x19, [x19,328]
.LVL183:
	ubfx	x0, x0, 9, 23
	add	x0, x0, x19
	str	x0, [x20,336]
.LVL184:
.L134:
.LBB1322:
.LBB1311:
.LBB1304:
.LBB1270:
.LBB1241:
.LBB1242:
.LBB1243:
.LBB1244:
.LBB1245:
.LBB1246:
.LBB1247:
	.loc 3 218 0 discriminator 5
	add	x0, x26, :lo12:vm_stat
.LBE1247:
.LBE1246:
.LBE1245:
.LBE1244:
.LBE1243:
.LBE1242:
.LBE1241:
	.loc 1 883 0
	ldr	w19, [x25]
.LVL185:
	cmp	w19, 50
.LBB1254:
.LBB1253:
.LBB1252:
.LBB1251:
.LBB1250:
.LBB1249:
.LBB1248:
	.loc 3 218 0 discriminator 5
	ldr	x22, [x0,120]
.LVL186:
.LBE1248:
.LBE1249:
.LBE1250:
.LBE1251:
.LBE1252:
.LBE1253:
.LBE1254:
.LBB1255:
.LBB1256:
.LBB1257:
.LBB1258:
.LBB1259:
.LBB1260:
.LBB1261:
	ldr	x24, [x0,168]
.LBE1261:
.LBE1260:
.LBE1259:
.LBE1258:
.LBE1257:
.LBE1256:
.LBE1255:
.LBB1262:
.LBB1263:
.LBB1264:
.LBB1265:
.LBB1266:
.LBB1267:
.LBB1268:
	ldr	x23, [x0,128]
.LBE1268:
.LBE1267:
.LBE1266:
.LBE1265:
.LBE1264:
.LBE1263:
.LBE1262:
	.loc 1 883 0
	bgt	.L135
	.loc 1 884 0
	add	w19, w19, 10
	bl	global_dirtyable_memory
.LVL187:
	mov	x1, 62915
	sxtw	x19, w19
	movk	x1, 0x5c28, lsl 16
	movk	x1, 0xc28f, lsl 32
	mul	x0, x0, x19
	movk	x1, 0x28f5, lsl 48
	lsr	x19, x0, 2
	umulh	x19, x19, x1
	lsr	x19, x19, 2
.LVL188:
.L136:
	.loc 1 888 0
	bl	pch_lowmem_check2
.LVL189:
	cmp	w0, wzr
	bgt	.L137
	cmp	x24, xzr
	csel	x24, x24, xzr, ge
	cmp	x23, xzr
	csel	x23, x23, xzr, ge
	cmp	x22, xzr
	csel	x22, x22, xzr, ge
	add	x24, x24, x23
	.loc 1 882 0
	add	x22, x24, x22
.LVL190:
	.loc 1 900 0
	cmp	x22, x19
	cset	w0, hi
	str	w0, [x20,1712]
.LBE1270:
.LBE1304:
	.loc 1 906 0
	cbnz	w0, .L139
.LBB1305:
.LBB1296:
.LBB1275:
.LBB1276:
.LBB1277:
	.loc 3 218 0 discriminator 4
	ldr	w0, [x20,1624]
.LBE1277:
.LBE1276:
.LBE1275:
	.loc 1 823 0 discriminator 5
	cmp	w0, 3
	bls	.L175
.L140:
	.loc 1 842 0 discriminator 5
	ldr	x0, [x20,15976]
.LBB1278:
.LBB1279:
.LBB1280:
	.loc 3 218 0 discriminator 4
	ldr	w2, [x20,616]
.LBE1280:
.LBE1279:
.LBE1278:
.LBB1281:
.LBB1282:
	.loc 1 815 0
	ldr	w1, [x20,2684]
.LBE1282:
.LBE1281:
	.loc 1 842 0 discriminator 5
	ldr	w0, [x0,16]
	sub	w0, w0, #4
	.loc 1 842 0 is_stmt 0 discriminator 7
	cmp	w2, w0
	mov	w2, 12
	mov	w0, 16
	csel	w0, w0, w2, hi
.LBB1284:
.LBB1283:
	.loc 1 815 0 is_stmt 1
	cmp	w1, w0
	bne	.L174
	b	.L148
.L175:
.LBE1283:
.LBE1284:
	.loc 1 823 0 discriminator 5
	ldr	x1, [x29,96]
	ldrb	w0, [x1,w0,uxtw]
	adr	x1, .Lrtx142
	add	x0, x1, w0, sxtb #2
	br	x0
.Lrtx142:
	.section	.rodata
	.align	0
	.align	2
.L142:
	.byte	(.L140 - .Lrtx142) / 4
	.byte	(.L143 - .Lrtx142) / 4
	.byte	(.L144 - .Lrtx142) / 4
	.byte	(.L145 - .Lrtx142) / 4
	.text
.L139:
.LBE1296:
.LBE1305:
	.loc 1 917 0
	mov	x0, x20
	bl	hisi_blk_mq_async_fwb_mode_inflight_limit_calc
.LVL191:
	b	.L148
.LVL192:
.L153:
.LBE1311:
.LBE1322:
	.loc 1 959 0
	cmp	w0, 2
	beq	.L176
	.loc 1 964 0
	mov	x0, x19
.LVL193:
	bl	__blk_mq_requeue_request
.LVL194:
.LBB1323:
.LBB1324:
	.loc 1 748 0
	mov	w1, 7
	mov	x0, x19
	bl	req_latency_check
.LVL195:
	.loc 1 750 0 discriminator 1
	mov	x0, x21
	bl	_raw_spin_lock_irqsave
.LVL196:
	mov	x22, x0
.LVL197:
	.loc 1 751 0
	ldr	x2, [x20,648]
	mov	x0, x19
	mov	x1, x20
	ldr	x2, [x2,24]
	blr	x2
.LVL198:
.LBB1325:
.LBB1326:
	.loc 4 362 0
	mov	x0, x21
	mov	x1, x22
	bl	_raw_spin_unlock_irqrestore
.LVL199:
.LBE1326:
.LBE1325:
.LBE1324:
.LBE1323:
.LBB1327:
.LBB1328:
	.loc 1 727 0
	adrp	x1, kti_offset
	.loc 1 728 0
	mov	x3, 3
.LBB1329:
.LBB1330:
	.loc 5 82 0
#APP
// 82 "/mnt/disk/jslave/ci/workspace/BKL_L04_B100_chipset/opensource/component_code/vendor/huawei/extra/build/build_script/kirin_kernel_release/kernel/arch/arm64/include/asm/thread_info.h" 1
	mrs x0, sp_el0
// 0 "" 2
.LVL200:
#NO_APP
.LBE1330:
.LBE1329:
	.loc 1 727 0
	ldr	x1, [x1,#:lo12:kti_offset]
	add	x0, x0, x1
.LVL201:
	.loc 1 728 0
	adrp	x1, .LANCHOR0
	.loc 1 727 0
	ldr	w2, [x0,28]
	.loc 1 728 0
	ldr	x1, [x1,#:lo12:.LANCHOR0]
.LVL202:
	mov	w0, w2
	sxtw	x2, w2
	lsl	x4, x2, 7
	sub	x2, x4, x2, lsl 4
.LVL203:
	add	x2, x20, x2
	add	x2, x2, 1784
	bl	queue_delayed_work_on
.LVL204:
.L133:
.LBE1328:
.LBE1327:
.LBE1334:
.LBE1338:
.LBE1342:
	.loc 1 977 0
	ldr	x1, [x29,136]
	ldr	x0, [x28,#:lo12:__stack_chk_guard]
	cmp	x1, x0
	bne	.L177
	ldp	x19, x20, [sp,16]
	.cfi_remember_state
	.cfi_restore 20
	.cfi_restore 19
.LVL205:
	ldp	x21, x22, [sp,32]
	.cfi_restore 22
	.cfi_restore 21
.LVL206:
	ldp	x23, x24, [sp,48]
	.cfi_restore 24
	.cfi_restore 23
	ldp	x25, x26, [sp,64]
	.cfi_restore 26
	.cfi_restore 25
	ldp	x27, x28, [sp,80]
	.cfi_restore 28
	.cfi_restore 27
	ldp	x29, x30, [sp], 144
	.cfi_restore 30
	.cfi_restore 29
	.cfi_def_cfa 31, 0
	ret
.L135:
	.cfi_restore_state
.LBB1343:
.LBB1339:
.LBB1335:
.LBB1331:
.LBB1312:
.LBB1306:
.LBB1271:
	.loc 1 886 0
	bl	global_dirtyable_memory
.LVL207:
	sxtw	x19, w19
	mov	x1, 62915
	mul	x0, x0, x19
	movk	x1, 0x5c28, lsl 16
	movk	x1, 0xc28f, lsl 32
	lsr	x19, x0, 2
	movk	x1, 0x28f5, lsl 48
	umulh	x19, x19, x1
	lsr	x19, x19, 2
.LVL208:
	b	.L136
.LVL209:
.L144:
.LBE1271:
.LBE1306:
.LBB1307:
.LBB1297:
.LBB1285:
.LBB1286:
	.loc 1 815 0
	ldr	w0, [x20,2684]
	cmp	w0, 1
	beq	.L148
	.loc 1 817 0
	mov	w0, 1
	str	w0, [x20,2684]
	.loc 1 818 0
	bl	ktime_get
.LVL210:
	str	x0, [x20,2688]
	b	.L148
.L143:
.LBE1286:
.LBE1285:
.LBB1287:
.LBB1288:
	.loc 1 815 0
	ldr	w0, [x20,2684]
	cmp	w0, 2
	beq	.L148
	.loc 1 817 0
	str	w27, [x20,2684]
	.loc 1 818 0
	bl	ktime_get
.LVL211:
	str	x0, [x20,2688]
	b	.L148
.L145:
.LBE1288:
.LBE1287:
	.loc 1 835 0 discriminator 5
	ldr	x0, [x20,15976]
.LBB1289:
.LBB1290:
.LBB1291:
	.loc 3 218 0 discriminator 4
	ldr	w2, [x20,616]
.LBE1291:
.LBE1290:
.LBE1289:
.LBB1292:
.LBB1293:
	.loc 1 815 0
	ldr	w1, [x20,2684]
.LBE1293:
.LBE1292:
	.loc 1 835 0 discriminator 5
	ldr	w0, [x0,16]
	sub	w0, w0, #4
	.loc 1 835 0 is_stmt 0 discriminator 7
	cmp	w2, w0
	mov	w2, 8
	mov	w0, 12
	csel	w0, w0, w2, hi
.LBB1295:
.LBB1294:
	.loc 1 815 0 is_stmt 1
	cmp	w1, w0
	bne	.L174
	b	.L148
.LVL212:
.L176:
.LBE1294:
.LBE1295:
.LBE1297:
.LBE1307:
.LBE1312:
.LBE1331:
	.loc 1 960 0
	mov	w1, -5
	.loc 1 961 0
	mov	x0, x19
.LVL213:
	.loc 1 960 0
	str	w1, [x19,516]
	.loc 1 961 0
	bl	blk_mq_end_request
.LVL214:
	b	.L134
.LVL215:
.L177:
.LBE1335:
.LBE1339:
.LBE1343:
	.loc 1 977 0
	bl	__stack_chk_fail
.LVL216:
	.cfi_endproc
.LFE2949:
	.size	hisi_blk_mq_async_io_dispatch_work_fn, .-hisi_blk_mq_async_io_dispatch_work_fn
	.align	2
	.global	hisi_blk_mq_flush_plug_list
	.type	hisi_blk_mq_flush_plug_list, %function
hisi_blk_mq_flush_plug_list:
.LFB2924:
	.loc 1 344 0
	.cfi_startproc
.LVL217:
	stp	x29, x30, [sp, -128]!
	.cfi_def_cfa_offset 128
	.cfi_offset 29, -128
	.cfi_offset 30, -120
	add	x29, sp, 0
	.cfi_def_cfa_register 29
	stp	x23, x24, [sp,48]
	.cfi_offset 23, -80
	.cfi_offset 24, -72
	adrp	x23, __stack_chk_guard
	str	x27, [sp,80]
	stp	x21, x22, [sp,32]
	.cfi_offset 27, -48
	.cfi_offset 21, -96
	.cfi_offset 22, -88
	mov	x21, x0
	.loc 1 349 0
	str	xzr, [x29,96]
	.loc 1 344 0
	stp	x25, x26, [sp,64]
	stp	x19, x20, [sp,16]
	.cfi_offset 25, -64
	.cfi_offset 26, -56
	.cfi_offset 19, -112
	.cfi_offset 20, -104
	.loc 1 344 0
	ldr	x0, [x23,#:lo12:__stack_chk_guard]
.LVL218:
.LBB1344:
.LBB1345:
.LBB1346:
.LBB1347:
.LBB1348:
.LBB1349:
.LBB1350:
.LBB1351:
	.loc 5 84 0
	adrp	x27, kti_offset
.LBE1351:
.LBE1350:
.LBE1349:
.LBE1348:
.LBE1347:
.LBE1346:
.LBE1345:
.LBE1344:
	.loc 1 344 0
	str	x0, [x29,120]
.LBB1382:
.LBB1377:
.LBB1367:
.LBB1368:
	.file 10 "/mnt/disk/jslave/ci/workspace/BKL_L04_B100_chipset/opensource/component_code/vendor/huawei/extra/build/build_script/kirin_kernel_release/kernel/block/blk-mq.h"
	.loc 10 85 0
	adrp	x22, __per_cpu_offset
.LBE1368:
.LBE1367:
.LBE1377:
.LBE1382:
	.loc 1 349 0
	mov	w0, 1
	str	xzr, [x29,104]
	ldr	x19, [x21,16]
.LBB1383:
.LBB1384:
	.loc 1 315 0
	adrp	x24, .LANCHOR0
.LBE1384:
.LBE1383:
	.loc 1 349 0
	strb	w0, [x29,112]
	.loc 1 370 0
	mov	w25, -5
.LBB1386:
.LBB1378:
.LBB1371:
.LBB1364:
.LBB1361:
.LBB1358:
.LBB1355:
.LBB1352:
	.loc 5 82 0
#APP
// 82 "/mnt/disk/jslave/ci/workspace/BKL_L04_B100_chipset/opensource/component_code/vendor/huawei/extra/build/build_script/kirin_kernel_release/kernel/arch/arm64/include/asm/thread_info.h" 1
	mrs x26, sp_el0
// 0 "" 2
.LVL219:
#NO_APP
	b	.L182
.LVL220:
.L191:
.LBE1352:
.LBE1355:
.LBE1358:
.LBE1361:
.LBE1364:
.LBE1371:
.LBE1378:
.LBE1386:
.LBB1387:
.LBB1388:
.LBB1389:
	.loc 2 102 0
	ldr	x1, [x19]
	ldr	x0, [x19,8]
.LBB1390:
.LBB1391:
	.loc 2 89 0
	str	x0, [x1,8]
.LBB1392:
.LBB1393:
.LBB1394:
	.loc 3 247 0
	str	x1, [x0]
.LBE1394:
.LBE1393:
.LBE1392:
.LBE1391:
.LBE1390:
.LBE1389:
.LBE1388:
.LBB1395:
.LBB1396:
	.loc 2 27 0
	str	x19, [x19]
	.loc 2 28 0
	str	x19, [x19,8]
.LBE1396:
.LBE1395:
.LBE1387:
.LBB1397:
.LBB1379:
.LBB1372:
.LBB1365:
.LBB1362:
.LBB1359:
.LBB1356:
.LBB1353:
	.loc 5 84 0
	ldr	x0, [x27,#:lo12:kti_offset]
.LBE1353:
.LBE1356:
.LBE1359:
.LBE1362:
.LBE1365:
.LBE1372:
.LBE1379:
.LBE1397:
	.loc 1 363 0
	str	x19, [x29,96]
.LBB1398:
.LBB1380:
.LBB1373:
.LBB1366:
.LBB1363:
.LBB1360:
.LBB1357:
.LBB1354:
	.loc 5 84 0
	add	x0, x26, x0
.LBE1354:
.LBE1357:
.LBE1360:
	.file 11 "/mnt/disk/jslave/ci/workspace/BKL_L04_B100_chipset/opensource/component_code/vendor/huawei/extra/build/build_script/kirin_kernel_release/kernel/include/asm-generic/preempt.h"
	.loc 11 53 0
	ldr	w1, [x0,24]
	add	w1, w1, 1
	str	w1, [x0,24]
.LBE1363:
.LBE1366:
	.loc 10 96 0
	ldr	x2, [x27,#:lo12:kti_offset]
.LBE1373:
.LBE1380:
.LBE1398:
	.loc 1 365 0
	mov	x0, x20
.LBB1399:
.LBB1381:
.LBB1374:
.LBB1369:
	.loc 10 85 0
	ldr	x1, [x20,304]
.LVL221:
.LBE1369:
.LBE1374:
.LBB1375:
	.loc 10 96 0
	add	x2, x26, x2
.LBE1375:
.LBB1376:
.LBB1370:
	.loc 10 85 0
	ldr	w3, [x2,28]
	add	x2, x22, :lo12:__per_cpu_offset
	ldr	x2, [x2,x3,lsl 3]
	add	x1, x1, x2
.LVL222:
.LBE1370:
.LBE1376:
.LBE1381:
.LBE1399:
	.loc 1 364 0
	str	x1, [x19,80]
	.loc 1 365 0
	ldr	x2, [x20,288]
	ldr	w1, [x1,64]
	ldr	x2, [x2,8]
	blr	x2
.LVL223:
	mov	x1, x0
.LVL224:
	.loc 1 366 0
	add	x2, x29, 96
	mov	x0, x19
	mov	x3, x20
	bl	hisi_blk_mq_queue_rq
.LVL225:
.LBB1400:
.LBB1401:
	.loc 10 102 0
.LBB1402:
.LBB1403:
.LBB1404:
.LBB1405:
.LBB1406:
	.loc 5 84 0
	ldr	x1, [x27,#:lo12:kti_offset]
	add	x1, x26, x1
.LBE1406:
.LBE1405:
.LBE1404:
	.loc 11 58 0
	ldr	w2, [x1,24]
	sub	w2, w2, #1
	str	w2, [x1,24]
.LVL226:
.LBE1403:
.LBE1402:
.LBE1401:
.LBE1400:
	.loc 1 368 0
	cbnz	w0, .L189
.L180:
.LBB1407:
.LBB1408:
	.loc 2 198 0
	mov	x0, x21
.LVL227:
	ldr	x19, [x0,16]!
.LBE1408:
.LBE1407:
	.loc 1 378 0
	cmp	x19, x0
	beq	.L190
.L182:
	.loc 1 359 0
	ldr	x20, [x19,64]
	.loc 1 360 0
	ldrb	w0, [x20,624]
	cbnz	w0, .L191
	.loc 1 361 0
	mov	w0, 0
.L179:
	.loc 1 380 0
	ldr	x2, [x29,120]
	ldr	x1, [x23,#:lo12:__stack_chk_guard]
	cmp	x2, x1
	bne	.L192
	ldp	x19, x20, [sp,16]
	.cfi_remember_state
	.cfi_restore 20
	.cfi_restore 19
.LVL228:
	ldp	x21, x22, [sp,32]
	.cfi_restore 22
	.cfi_restore 21
.LVL229:
	ldp	x23, x24, [sp,48]
	.cfi_restore 24
	.cfi_restore 23
	ldp	x25, x26, [sp,64]
	.cfi_restore 26
	.cfi_restore 25
.LVL230:
	ldr	x27, [sp,80]
	.cfi_restore 27
	ldp	x29, x30, [sp], 128
	.cfi_restore 30
	.cfi_restore 29
	.cfi_def_cfa 31, 0
	ret
.LVL231:
.L189:
	.cfi_restore_state
	.loc 1 369 0
	cmp	w0, 2
	beq	.L193
	.loc 1 373 0
	mov	x0, x19
.LVL232:
	bl	__blk_mq_requeue_request
.LVL233:
	.loc 1 374 0
	mov	x0, x19
	mov	x1, x20
	bl	hisi_blk_mq_insert_sync_list
.LVL234:
.LBB1410:
.LBB1385:
	.loc 1 314 0
	ldr	x0, [x27,#:lo12:kti_offset]
	.loc 1 315 0
	add	x1, x24, :lo12:.LANCHOR0
	ldrb	w3, [x20,2696]
	.loc 1 314 0
	add	x0, x26, x0
	.loc 1 315 0
	ldr	x1, [x1,8]
	.loc 1 314 0
	ldr	w2, [x0,28]
.LVL235:
	.loc 1 315 0
	mov	w0, w2
	sxtw	x2, w2
	lsl	x4, x2, 7
	sub	x2, x4, x2, lsl 4
.LVL236:
	add	x2, x20, x2
	add	x2, x2, 728
	bl	queue_delayed_work_on
.LVL237:
.LBE1385:
.LBE1410:
.LBB1411:
.LBB1409:
	.loc 2 198 0
	mov	x0, x21
	ldr	x19, [x0,16]!
.LBE1409:
.LBE1411:
	.loc 1 378 0
	cmp	x19, x0
	bne	.L182
.L190:
	.loc 1 379 0
	mov	w0, 1
	b	.L179
.LVL238:
.L193:
	.loc 1 370 0
	str	w25, [x19,516]
	.loc 1 371 0
	mov	x0, x19
.LVL239:
	mov	w1, -5
	bl	blk_mq_end_request
.LVL240:
	b	.L180
.L192:
	.loc 1 380 0
	bl	__stack_chk_fail
.LVL241:
	.cfi_endproc
.LFE2924:
	.size	hisi_blk_mq_flush_plug_list, .-hisi_blk_mq_flush_plug_list
	.align	2
	.global	hisi_blk_mq_dispatch_strategy_make_request
	.type	hisi_blk_mq_dispatch_strategy_make_request, %function
hisi_blk_mq_dispatch_strategy_make_request:
.LFB2925:
	.loc 1 383 0
	.cfi_startproc
.LVL242:
	stp	x29, x30, [sp, -144]!
	.cfi_def_cfa_offset 144
	.cfi_offset 29, -144
	.cfi_offset 30, -136
	.loc 1 385 0
	mov	x2, x1
	.loc 1 383 0
	add	x29, sp, 0
	.cfi_def_cfa_register 29
	stp	x19, x20, [sp,16]
	stp	x21, x22, [sp,32]
	stp	x23, x24, [sp,48]
	str	x25, [sp,64]
	.cfi_offset 19, -128
	.cfi_offset 20, -120
	.cfi_offset 21, -112
	.cfi_offset 22, -104
	.cfi_offset 23, -96
	.cfi_offset 24, -88
	.cfi_offset 25, -80
	.loc 1 383 0
	adrp	x22, __stack_chk_guard
	mov	x19, x0
	str	x1, [x29,88]
	.loc 1 385 0
	ldr	x0, [x1,24]
.LVL243:
.LBB1497:
.LBB1498:
	.file 12 "/mnt/disk/jslave/ci/workspace/BKL_L04_B100_chipset/opensource/component_code/vendor/huawei/extra/build/build_script/kirin_kernel_release/kernel/block/hisi-blk-mq.h"
	.loc 12 11 0
	mov	x1, 24657
.LBE1498:
.LBE1497:
	.loc 1 383 0
	ldr	x3, [x22,#:lo12:__stack_chk_guard]
.LBB1500:
.LBB1499:
	.loc 12 11 0
	and	x1, x0, x1
.LBE1499:
.LBE1500:
	.loc 1 383 0
	str	x3, [x29,136]
	.loc 1 391 0
	cmp	x1, 1
	.loc 1 385 0
	and	w24, w0, 24576
.LVL244:
	.loc 1 391 0
	beq	.L226
	.loc 1 393 0
	orr	x0, x0, 16
	str	x0, [x2,24]
.LBB1501:
.LBB1502:
.LBB1503:
.LBB1504:
.LBB1505:
	.loc 3 218 0 discriminator 4
	ldr	w0, [x19,1624]
.LBE1505:
.LBE1504:
.LBE1503:
	.loc 1 156 0 discriminator 5
	cbz	w0, .L197
	cmp	w0, 1
	beq	.L198
	.loc 1 173 0
	bl	ktime_get
.LVL245:
.LBE1502:
.LBE1501:
	.loc 1 392 0
	mov	w25, 1
.LVL246:
.LBB1528:
.LBB1524:
	.loc 1 173 0
	str	x0, [x19,1680]
.L195:
.LBE1524:
.LBE1528:
	.loc 1 400 0
	ldr	x2, [x19,16000]
	mov	x0, x19
	add	x1, x29, 88
	bl	blk_queue_split
.LVL247:
	.loc 1 403 0
	ldr	x1, [x29,88]
.LVL248:
	mov	x2, 0
	ldr	x0, [x19,80]
	ldr	w1, [x1,24]
.LVL249:
	bl	wbt_wait
.LVL250:
	uxtb	w23, w0
.LVL251:
	.loc 1 406 0
	ldr	x0, [x29,88]
	mov	w1, 3
	bl	bio_latency_check
.LVL252:
	.loc 1 409 0
	ldr	x1, [x29,88]
	mov	x0, x19
	add	x2, x29, 96
	bl	blk_mq_map_request
.LVL253:
	mov	x20, x0
.LVL254:
	.loc 1 410 0
	cbz	x0, .L248
	.loc 1 416 0
	cbnz	w23, .L249
.L205:
	.loc 1 419 0
	ldr	x0, [x29,96]
.LBB1529:
.LBB1530:
	.file 13 "/mnt/disk/jslave/ci/workspace/BKL_L04_B100_chipset/opensource/component_code/vendor/huawei/extra/build/build_script/kirin_kernel_release/kernel/include/linux/blk_types.h"
	.loc 13 393 0
	ldr	w1, [x20,512]
.LBE1530:
.LBE1529:
	.loc 1 421 0 discriminator 1
	ldr	x3, [x29,88]
.LBB1532:
.LBB1531:
	.loc 13 393 0
	ldr	w21, [x0,460]
	orr	w21, w1, w21, lsl 16
.LBE1531:
.LBE1532:
	.loc 1 421 0
	tbnz	x24, 14, .L250
.L207:
	.loc 1 431 0
	cbz	w25, .L209
.LBB1533:
	.loc 1 438 0
	mov	x1, x3
	mov	x0, x20
	bl	init_request_from_bio
.LVL255:
	.loc 1 439 0
	mov	x0, x20
	mov	w1, 1
	bl	blk_account_io_start
.LVL256:
	.loc 1 440 0
	str	x20, [x29,112]
	ldr	x1, [x20,88]
	.loc 1 441 0
	ldr	x0, [x29,96]
.LBB1534:
.LBB1535:
.LBB1536:
.LBB1537:
	.loc 1 181 0
	tbz	x1, 4, .L210
	.loc 1 182 0
	tbnz	x1, 5, .L251
.LBB1538:
.LBB1539:
	.loc 7 90 0
	add	x3, x19, 720
#APP
// 90 "/mnt/disk/jslave/ci/workspace/BKL_L04_B100_chipset/opensource/component_code/vendor/huawei/extra/build/build_script/kirin_kernel_release/kernel/arch/arm64/include/asm/atomic_ll_sc.h" 1
	// atomic_add_return
	prfm	pstl1strm, [x3]
1:	ldxr	w2, [x3]
	add	w2, w2, 1
	stlxr	w1, w2, [x3]
	cbnz	w1, 1b
	dmb ish
// 0 "" 2
.LVL257:
#NO_APP
.LBE1539:
.LBE1538:
	.loc 1 190 0
	ldr	w1, [x19,724]
.LVL258:
	cmp	w2, w1
	bgt	.L244
.LVL259:
.L212:
.LBE1537:
.LBE1536:
	.loc 1 279 0
	ldr	x2, [x19,288]
.LVL260:
	add	x1, x29, 112
.LVL261:
	ldr	x2, [x2]
	blr	x2
.LVL262:
	mov	w23, w0
.LVL263:
	.loc 1 281 0
	mov	w1, 8
	mov	x0, x20
	bl	req_latency_check
.LVL264:
	.loc 1 283 0
	cbnz	w23, .L252
.LVL265:
.L217:
.LBE1535:
.LBE1534:
.LBB1570:
.LBB1571:
	.loc 10 102 0
.LBB1572:
.LBB1573:
.LBB1574:
.LBB1575:
.LBB1576:
	.loc 5 84 0
	adrp	x25, kti_offset
.LVL266:
	.loc 5 82 0
#APP
// 82 "/mnt/disk/jslave/ci/workspace/BKL_L04_B100_chipset/opensource/component_code/vendor/huawei/extra/build/build_script/kirin_kernel_release/kernel/arch/arm64/include/asm/thread_info.h" 1
	mrs x24, sp_el0
// 0 "" 2
.LVL267:
	.loc 5 84 0
#NO_APP
	ldr	x0, [x25,#:lo12:kti_offset]
.LVL268:
	add	x0, x24, x0
.LBE1576:
.LBE1575:
.LBE1574:
	.loc 11 58 0
	ldr	w1, [x0,24]
.LVL269:
	sub	w1, w1, #1
	str	w1, [x0,24]
.LBE1573:
.LBE1572:
.LBE1571:
.LBE1570:
	.loc 1 443 0
	cbnz	w23, .L253
.LVL270:
.L204:
.LBE1533:
	.loc 1 472 0
	ldr	x2, [x29,136]
	mov	w0, w21
	ldr	x1, [x22,#:lo12:__stack_chk_guard]
	cmp	x2, x1
	bne	.L254
	ldp	x19, x20, [sp,16]
	.cfi_remember_state
	.cfi_restore 20
	.cfi_restore 19
.LVL271:
	ldp	x21, x22, [sp,32]
	.cfi_restore 22
	.cfi_restore 21
	ldp	x23, x24, [sp,48]
	.cfi_restore 24
	.cfi_restore 23
.LVL272:
	ldr	x25, [sp,64]
	.cfi_restore 25
.LVL273:
	ldp	x29, x30, [sp], 144
	.cfi_restore 30
	.cfi_restore 29
	.cfi_def_cfa 31, 0
	ret
.LVL274:
.L198:
	.cfi_restore_state
.LBB1596:
.LBB1525:
	.loc 1 167 0
	bl	ktime_get
.LVL275:
.LBB1506:
.LBB1507:
.LBB1508:
	.loc 6 233 0
	ldr	x1, [x19,1680]
	add	x1, x1, 9998336
	add	x1, x1, 1664
.LBE1508:
.LBE1507:
.LBB1509:
.LBB1510:
.LBB1511:
	.loc 6 144 0
	cmp	x0, x1
	bge	.L202
.LBE1511:
.LBE1510:
.LBE1509:
.LBE1506:
.LBB1512:
.LBB1513:
.LBB1514:
	.loc 3 246 0
	mov	w1, 2
	str	w1, [x19,1624]
.L202:
.LBE1514:
.LBE1513:
.LBE1512:
	.loc 1 170 0
	str	x0, [x19,1680]
.LBE1525:
.LBE1596:
	.loc 1 392 0
	mov	w25, 1
.LVL276:
	b	.L195
.LVL277:
.L197:
.LBB1597:
.LBB1526:
	.loc 1 158 0
	bl	ktime_get
.LVL278:
	mov	x20, x0
.LBB1515:
.LBB1516:
.LBB1517:
	.loc 6 233 0
	ldr	x0, [x19,1680]
	add	x0, x0, 9998336
	add	x0, x0, 1664
.LBE1517:
.LBE1516:
.LBB1518:
.LBB1519:
.LBB1520:
	.loc 6 144 0
	cmp	x0, x20
	bgt	.L199
.L201:
.LBE1520:
.LBE1519:
.LBE1518:
.LBE1515:
	.loc 1 164 0
	str	x20, [x19,1680]
.LBE1526:
.LBE1597:
	.loc 1 392 0
	mov	w25, 1
.LVL279:
	b	.L195
.LVL280:
.L250:
	.loc 1 421 0 discriminator 1
	ldr	w1, [x3,48]
	cbz	w1, .L207
	.loc 1 425 0
	mov	x1, x3
	mov	x0, x20
	bl	init_request_from_bio
.LVL281:
	.loc 1 426 0
	mov	x0, x20
	mov	w1, 1
	bl	blk_account_io_start
.LVL282:
	.loc 1 427 0
	mov	x0, x20
	bl	blk_insert_flush
.LVL283:
.L208:
	.loc 1 464 0
	ldr	x0, [x29,96]
	eor	w1, w25, 1
	bl	blk_mq_run_hw_queue
.LVL284:
.L224:
.LBB1598:
.LBB1599:
	.loc 10 102 0
.LBB1600:
.LBB1601:
.LBB1602:
.LBB1603:
.LBB1604:
	.loc 5 84 0
	adrp	x1, kti_offset
	.loc 5 82 0
#APP
// 82 "/mnt/disk/jslave/ci/workspace/BKL_L04_B100_chipset/opensource/component_code/vendor/huawei/extra/build/build_script/kirin_kernel_release/kernel/arch/arm64/include/asm/thread_info.h" 1
	mrs x0, sp_el0
// 0 "" 2
.LVL285:
	.loc 5 84 0
#NO_APP
	ldr	x1, [x1,#:lo12:kti_offset]
	add	x0, x0, x1
.LVL286:
.LBE1604:
.LBE1603:
.LBE1602:
	.loc 11 58 0
	ldr	w1, [x0,24]
	sub	w1, w1, #1
	str	w1, [x0,24]
	b	.L204
.LVL287:
.L248:
.LBE1601:
.LBE1600:
.LBE1599:
.LBE1598:
	.loc 1 413 0
	mov	w21, -1
	.loc 1 411 0
	cbz	w23, .L204
	.loc 1 412 0
	ldr	x0, [x19,80]
.LVL288:
	bl	__wbt_done
.LVL289:
	b	.L204
.LVL290:
.L226:
	.loc 1 384 0
	mov	w25, 0
.LVL291:
	b	.L195
.LVL292:
.L249:
.LBB1605:
.LBB1606:
	.file 14 "/mnt/disk/jslave/ci/workspace/BKL_L04_B100_chipset/opensource/component_code/vendor/huawei/extra/build/build_script/kirin_kernel_release/kernel/include/linux/wbt.h"
	.loc 14 29 0
	ldr	x0, [x0,464]
.LVL293:
	orr	x0, x0, -9223372036854775808
	str	x0, [x20,464]
	b	.L205
.L209:
.LBE1606:
.LBE1605:
	.loc 1 462 0
	ldr	x1, [x29,104]
	mov	x2, x20
	bl	blk_mq_merge_queue_io
.LVL294:
	uxtb	w0, w0
	cbnz	w0, .L224
	b	.L208
.LVL295:
.L199:
.LBB1607:
.LBB1527:
	.loc 1 162 0
	adrp	x1, jiffies
.LBB1521:
.LBB1522:
.LBB1523:
	.loc 3 246 0
	mov	w0, 1
	str	w0, [x19,1624]
.LBE1523:
.LBE1522:
.LBE1521:
	.loc 1 162 0 discriminator 1
	add	x0, x19, 1632
	.loc 1 160 0
	str	x20, [x19,1704]
	.loc 1 162 0
	ldr	x1, [x1,#:lo12:jiffies]
	.loc 1 162 0 is_stmt 0 discriminator 1
	add	x1, x1, 3
	bl	mod_timer
.LVL296:
	b	.L201
.LVL297:
.L210:
.LBE1527:
.LBE1607:
.LBB1608:
.LBB1577:
.LBB1567:
.LBB1546:
.LBB1544:
.LBB1540:
.LBB1541:
	.loc 7 90 0 is_stmt 1
	add	x3, x19, 2680
#APP
// 90 "/mnt/disk/jslave/ci/workspace/BKL_L04_B100_chipset/opensource/component_code/vendor/huawei/extra/build/build_script/kirin_kernel_release/kernel/arch/arm64/include/asm/atomic_ll_sc.h" 1
	// atomic_add_return
	prfm	pstl1strm, [x3]
1:	ldxr	w2, [x3]
	add	w2, w2, 1
	stlxr	w1, w2, [x3]
	cbnz	w1, 1b
	dmb ish
// 0 "" 2
.LVL298:
#NO_APP
.LBE1541:
.LBE1540:
	.loc 1 205 0
	ldr	w1, [x19,2684]
.LVL299:
	cmp	w2, w1
	ble	.L212
.LVL300:
.L244:
	.loc 1 210 0
	mov	w0, 2
	mov	w23, 1
.LVL301:
	str	w0, [x20,616]
.L214:
	ldr	x0, [x20,88]
.LBE1544:
.LBE1546:
.LBB1547:
.LBB1548:
	.loc 1 232 0
	tbz	x0, 4, .L215
	.loc 1 233 0
	tbnz	x0, 5, .L255
.LBB1549:
.LBB1550:
	.loc 7 91 0
	add	x2, x19, 720
.LVL302:
#APP
// 91 "/mnt/disk/jslave/ci/workspace/BKL_L04_B100_chipset/opensource/component_code/vendor/huawei/extra/build/build_script/kirin_kernel_release/kernel/arch/arm64/include/asm/atomic_ll_sc.h" 1
	// atomic_sub
	prfm	pstl1strm, [x2]
1:	ldxr	w0, [x2]
	sub	w0, w0, 1
	stxr	w1, w0, [x2]
	cbnz	w1, 1b
// 0 "" 2
.LVL303:
#NO_APP
	b	.L217
.LVL304:
.L253:
.LBE1550:
.LBE1549:
.LBE1548:
.LBE1547:
.LBE1567:
.LBE1577:
	.loc 1 445 0
	cmp	w23, 2
	beq	.L256
	.loc 1 450 0
	mov	x0, x20
.LBB1578:
.LBB1579:
.LBB1580:
.LBB1581:
	.loc 4 291 0
	add	x23, x19, 696
.LVL305:
.LBE1581:
.LBE1580:
.LBE1579:
.LBE1578:
	.loc 1 450 0
	bl	__blk_mq_requeue_request
.LVL306:
.LBB1593:
.LBB1592:
	.loc 1 335 0
	mov	x0, x20
	mov	w1, 6
	bl	req_latency_check
.LVL307:
	.loc 1 337 0 discriminator 1
	mov	x0, x23
	bl	_raw_spin_lock_irqsave
.LVL308:
	mov	x1, x0
.LVL309:
	.loc 1 338 0
	ldr	x3, [x20,88]
	.loc 1 338 0 is_stmt 0 discriminator 1
	add	x4, x19, 656
	add	x2, x19, 680
.LBB1582:
.LBB1583:
	.loc 4 362 0 is_stmt 1
	mov	x0, x23
.LBE1583:
.LBE1582:
	.loc 1 338 0
	and	x3, x3, 32
	.loc 1 338 0 is_stmt 0 discriminator 1
	cmp	x3, xzr
	csel	x2, x2, x4, eq
.LBB1585:
.LBB1586:
	.loc 2 77 0 is_stmt 1
	ldr	x3, [x2,8]
.LBB1587:
.LBB1588:
	.loc 2 42 0
	str	x20, [x2,8]
	.loc 2 43 0
	str	x2, [x20]
	.loc 2 44 0
	str	x3, [x20,8]
	.loc 2 45 0
	str	x20, [x3]
.LBE1588:
.LBE1587:
.LBE1586:
.LBE1585:
.LBB1589:
.LBB1584:
	.loc 4 362 0
	bl	_raw_spin_unlock_irqrestore
.LVL310:
.LBE1584:
.LBE1589:
.LBB1590:
.LBB1591:
	.loc 1 314 0
	ldr	x0, [x25,#:lo12:kti_offset]
	.loc 1 315 0
	ldrb	w3, [x19,2696]
	.loc 1 314 0
	add	x24, x24, x0
.LVL311:
	.loc 1 315 0
	adrp	x0, .LANCHOR0+8
	.loc 1 314 0
	ldr	w2, [x24,28]
	.loc 1 315 0
	ldr	x1, [x0,#:lo12:.LANCHOR0+8]
.LVL312:
	mov	w0, w2
	sxtw	x2, w2
	lsl	x4, x2, 7
	sub	x2, x4, x2, lsl 4
.LVL313:
	add	x2, x19, x2
	add	x2, x2, 728
	bl	queue_delayed_work_on
.LVL314:
	b	.L204
.LVL315:
.L252:
.LBE1591:
.LBE1590:
.LBE1592:
.LBE1593:
.LBB1594:
.LBB1568:
	.loc 1 286 0
	mov	w0, 1
	str	w0, [x20,616]
.LBB1556:
.LBB1557:
.LBB1558:
	.loc 3 218 0 discriminator 4
	ldr	w2, [x19,672]
.LBE1558:
.LBE1557:
.LBE1556:
.LBB1559:
.LBB1560:
.LBB1561:
	ldr	w0, [x19,720]
.LBE1561:
.LBE1560:
.LBE1559:
.LBB1562:
.LBB1563:
.LBB1564:
	ldr	w1, [x19,2680]
.LBE1564:
.LBE1563:
.LBE1562:
	.loc 1 288 0 discriminator 11
	add	w0, w2, w0
	.loc 1 288 0 is_stmt 0 discriminator 17
	add	w0, w0, w1
	cmp	w0, 8
	bgt	.L214
	.loc 1 289 0 is_stmt 1
	mov	w0, 3
	str	w0, [x20,616]
	b	.L214
.LVL316:
.L251:
.LBB1565:
.LBB1545:
.LBB1542:
.LBB1543:
	.loc 7 90 0
	add	x3, x19, 672
#APP
// 90 "/mnt/disk/jslave/ci/workspace/BKL_L04_B100_chipset/opensource/component_code/vendor/huawei/extra/build/build_script/kirin_kernel_release/kernel/arch/arm64/include/asm/atomic_ll_sc.h" 1
	// atomic_add
	prfm	pstl1strm, [x3]
1:	ldxr	w1, [x3]
	add	w1, w1, 1
	stxr	w2, w1, [x3]
	cbnz	w2, 1b
// 0 "" 2
.LVL317:
#NO_APP
	b	.L212
.LVL318:
.L256:
.LBE1543:
.LBE1542:
.LBE1545:
.LBE1565:
.LBE1568:
.LBE1594:
	.loc 1 446 0
	mov	w1, -5
	.loc 1 447 0
	mov	x0, x20
	.loc 1 446 0
	str	w1, [x20,516]
	.loc 1 447 0
	bl	blk_mq_end_request
.LVL319:
	.loc 1 448 0
	b	.L204
.LVL320:
.L215:
.LBB1595:
.LBB1569:
.LBB1566:
.LBB1555:
.LBB1551:
.LBB1552:
	.loc 7 91 0
	add	x2, x19, 2680
.LVL321:
#APP
// 91 "/mnt/disk/jslave/ci/workspace/BKL_L04_B100_chipset/opensource/component_code/vendor/huawei/extra/build/build_script/kirin_kernel_release/kernel/arch/arm64/include/asm/atomic_ll_sc.h" 1
	// atomic_sub
	prfm	pstl1strm, [x2]
1:	ldxr	w0, [x2]
	sub	w0, w0, 1
	stxr	w1, w0, [x2]
	cbnz	w1, 1b
// 0 "" 2
.LVL322:
#NO_APP
	b	.L217
.LVL323:
.L255:
.LBE1552:
.LBE1551:
.LBB1553:
.LBB1554:
	add	x2, x19, 672
.LVL324:
#APP
// 91 "/mnt/disk/jslave/ci/workspace/BKL_L04_B100_chipset/opensource/component_code/vendor/huawei/extra/build/build_script/kirin_kernel_release/kernel/arch/arm64/include/asm/atomic_ll_sc.h" 1
	// atomic_sub
	prfm	pstl1strm, [x2]
1:	ldxr	w0, [x2]
	sub	w0, w0, 1
	stxr	w1, w0, [x2]
	cbnz	w1, 1b
// 0 "" 2
.LVL325:
#NO_APP
	b	.L217
.LVL326:
.L254:
.LBE1554:
.LBE1553:
.LBE1555:
.LBE1566:
.LBE1569:
.LBE1595:
.LBE1608:
	.loc 1 472 0
	bl	__stack_chk_fail
.LVL327:
	.cfi_endproc
.LFE2925:
	.size	hisi_blk_mq_dispatch_strategy_make_request, .-hisi_blk_mq_dispatch_strategy_make_request
	.align	2
	.global	hisi_blk_mq_attempt_merge
	.type	hisi_blk_mq_attempt_merge, %function
hisi_blk_mq_attempt_merge:
.LFB2941:
	.loc 1 791 0
	.cfi_startproc
.LVL328:
	stp	x29, x30, [sp, -48]!
	.cfi_def_cfa_offset 48
	.cfi_offset 29, -48
	.cfi_offset 30, -40
	add	x29, sp, 0
	.cfi_def_cfa_register 29
	stp	x19, x20, [sp,16]
	stp	x21, x22, [sp,32]
	.cfi_offset 19, -32
	.cfi_offset 20, -24
	.cfi_offset 21, -16
	.cfi_offset 22, -8
	.loc 1 791 0
	mov	x19, x0
	mov	x20, x2
	.loc 1 794 0
	ldrb	w3, [x0,624]
	cbz	w3, .L262
	.loc 1 796 0
	ldr	x0, [x2,24]
	tbnz	x0, 4, .L261
	.loc 1 798 0
	ldr	x0, [x19,648]
	ldr	x0, [x0,32]
	cbz	x0, .L261
.LBB1609:
.LBB1610:
	.loc 4 291 0
	add	x21, x19, 1760
.LBE1610:
.LBE1609:
	.loc 1 800 0 discriminator 1
	mov	x0, x21
	bl	_raw_spin_lock_irqsave
.LVL329:
	mov	x22, x0
.LVL330:
	.loc 1 801 0
	ldr	x2, [x19,648]
	mov	x1, x19
	mov	x0, x20
	ldr	x2, [x2,32]
	blr	x2
.LVL331:
	uxtb	w19, w0
.LVL332:
.LBB1611:
.LBB1612:
	.loc 4 362 0
	mov	x1, x22
	mov	x0, x21
	bl	_raw_spin_unlock_irqrestore
.LVL333:
.LBE1612:
.LBE1611:
	.loc 1 803 0
	mov	w0, w19
	.loc 1 804 0
	ldp	x19, x20, [sp,16]
	.cfi_remember_state
	.cfi_restore 20
	.cfi_restore 19
.LVL334:
	ldp	x21, x22, [sp,32]
	.cfi_restore 22
	.cfi_restore 21
.LVL335:
	ldp	x29, x30, [sp], 48
	.cfi_restore 30
	.cfi_restore 29
	.cfi_def_cfa 31, 0
	ret
.LVL336:
.L261:
	.cfi_restore_state
	.loc 1 797 0
	mov	w0, 0
	.loc 1 804 0
	ldp	x19, x20, [sp,16]
	.cfi_remember_state
	.cfi_restore 19
	.cfi_restore 20
.LVL337:
	ldp	x21, x22, [sp,32]
	.cfi_restore 21
	.cfi_restore 22
	ldp	x29, x30, [sp], 48
	.cfi_restore 29
	.cfi_restore 30
	.cfi_def_cfa 31, 0
	ret
.LVL338:
.L262:
	.cfi_restore_state
	.loc 1 795 0
	bl	blk_mq_attempt_merge
.LVL339:
	uxtb	w0, w0
	.loc 1 804 0
	ldp	x19, x20, [sp,16]
	.cfi_restore 19
	.cfi_restore 20
.LVL340:
	ldp	x21, x22, [sp,32]
	.cfi_restore 21
	.cfi_restore 22
	ldp	x29, x30, [sp], 48
	.cfi_restore 29
	.cfi_restore 30
	.cfi_def_cfa 31, 0
	ret
	.cfi_endproc
.LFE2941:
	.size	hisi_blk_mq_attempt_merge, .-hisi_blk_mq_attempt_merge
	.align	2
	.global	hisi_blk_mq_insert_req
	.type	hisi_blk_mq_insert_req, %function
hisi_blk_mq_insert_req:
.LFB2950:
	.loc 1 980 0
	.cfi_startproc
.LVL341:
	stp	x29, x30, [sp, -64]!
	.cfi_def_cfa_offset 64
	.cfi_offset 29, -64
	.cfi_offset 30, -56
	add	x29, sp, 0
	.cfi_def_cfa_register 29
	stp	x19, x20, [sp,16]
	stp	x21, x22, [sp,32]
	str	x23, [sp,48]
	.cfi_offset 19, -48
	.cfi_offset 20, -40
	.cfi_offset 21, -32
	.cfi_offset 22, -24
	.cfi_offset 23, -16
	.loc 1 980 0
	mov	x20, x0
	.loc 1 981 0
	ldrb	w2, [x1,624]
.LVL342:
	cbz	w2, .L269
	mov	x19, x1
	.loc 1 983 0
	ldr	x1, [x0,88]
.LVL343:
	tbz	x1, 4, .L270
.L265:
.LBB1629:
.LBB1630:
	.loc 1 323 0
	mov	w1, 6
.LVL344:
	mov	x0, x20
.LBB1631:
.LBB1632:
	.loc 4 291 0
	add	x21, x19, 696
.LBE1632:
.LBE1631:
	.loc 1 323 0
	bl	req_latency_check
.LVL345:
	.loc 1 325 0 discriminator 1
	mov	x0, x21
	bl	_raw_spin_lock_irqsave
.LVL346:
	mov	x1, x0
.LVL347:
	.loc 1 326 0
	ldr	x2, [x20,88]
	.loc 1 326 0 is_stmt 0 discriminator 1
	add	x3, x19, 656
	add	x19, x19, 680
.LVL348:
.LBB1633:
.LBB1634:
	.loc 4 362 0 is_stmt 1
	mov	x0, x21
.LBE1634:
.LBE1633:
	.loc 1 326 0
	and	x2, x2, 32
	.loc 1 326 0 is_stmt 0 discriminator 1
	cmp	x2, xzr
	csel	x19, x19, x3, eq
.LBB1636:
.LBB1637:
	.loc 2 77 0 is_stmt 1
	ldr	x2, [x19,8]
.LBB1638:
.LBB1639:
	.loc 2 42 0
	str	x20, [x19,8]
	.loc 2 43 0
	str	x19, [x20]
	.loc 2 44 0
	str	x2, [x20,8]
	.loc 2 45 0
	str	x20, [x2]
.LBE1639:
.LBE1638:
.LBE1637:
.LBE1636:
.LBB1640:
.LBB1635:
	.loc 4 362 0
	bl	_raw_spin_unlock_irqrestore
.LVL349:
.LBE1635:
.LBE1640:
.LBE1630:
.LBE1629:
	.loc 1 987 0
	mov	w0, 1
.LVL350:
.L264:
	.loc 1 988 0
	ldp	x19, x20, [sp,16]
	.cfi_remember_state
	.cfi_restore 20
	.cfi_restore 19
.LVL351:
	ldp	x21, x22, [sp,32]
	.cfi_restore 22
	.cfi_restore 21
	ldr	x23, [sp,48]
	.cfi_restore 23
.LVL352:
	ldp	x29, x30, [sp], 64
	.cfi_restore 30
	.cfi_restore 29
	.cfi_def_cfa 31, 0
	ret
.LVL353:
.L269:
	.cfi_restore_state
	.loc 1 982 0
	mov	w0, 0
	.loc 1 988 0
	ldr	x23, [sp,48]
	.cfi_remember_state
	.cfi_restore 23
	ldp	x19, x20, [sp,16]
	.cfi_restore 19
	.cfi_restore 20
.LVL354:
	ldp	x21, x22, [sp,32]
	.cfi_restore 21
	.cfi_restore 22
	ldp	x29, x30, [sp], 64
	.cfi_restore 29
	.cfi_restore 30
	.cfi_def_cfa 31, 0
	ret
.LVL355:
.L270:
	.cfi_restore_state
	.loc 1 983 0 discriminator 1
	ldr	w21, [x0,96]
	cmp	w21, 1
	bne	.L265
.LBB1641:
.LBB1642:
	.loc 1 736 0
	mov	w1, 7
.LBB1643:
.LBB1644:
	.loc 4 291 0
	add	x22, x19, 1760
.LBE1644:
.LBE1643:
	.loc 1 736 0
	bl	req_latency_check
.LVL356:
	.loc 1 738 0 discriminator 1
	mov	x0, x22
	bl	_raw_spin_lock_irqsave
.LVL357:
	mov	x23, x0
.LVL358:
	.loc 1 739 0
	ldr	x2, [x19,648]
	mov	x0, x20
	mov	x1, x19
	ldr	x2, [x2,8]
	blr	x2
.LVL359:
.LBB1645:
.LBB1646:
	.loc 4 362 0
	mov	x0, x22
	mov	x1, x23
	bl	_raw_spin_unlock_irqrestore
.LVL360:
.LBE1646:
.LBE1645:
.LBE1642:
.LBE1641:
	.loc 1 987 0
	mov	w0, w21
	b	.L264
	.cfi_endproc
.LFE2950:
	.size	hisi_blk_mq_insert_req, .-hisi_blk_mq_insert_req
	.align	2
	.global	hisi_blk_mq_requeue_req
	.type	hisi_blk_mq_requeue_req, %function
hisi_blk_mq_requeue_req:
.LFB2951:
	.loc 1 991 0
	.cfi_startproc
.LVL361:
	stp	x29, x30, [sp, -64]!
	.cfi_def_cfa_offset 64
	.cfi_offset 29, -64
	.cfi_offset 30, -56
	add	x29, sp, 0
	.cfi_def_cfa_register 29
	stp	x19, x20, [sp,16]
	stp	x21, x22, [sp,32]
	str	x23, [sp,48]
	.cfi_offset 19, -48
	.cfi_offset 20, -40
	.cfi_offset 21, -32
	.cfi_offset 22, -24
	.cfi_offset 23, -16
	.loc 1 991 0
	mov	x19, x0
	.loc 1 992 0
	ldrb	w2, [x1,624]
	cbz	w2, .L277
	mov	x20, x1
	.loc 1 994 0
	ldr	x1, [x0,88]
.LVL362:
	tbz	x1, 4, .L278
.L273:
.LBB1673:
.LBB1674:
	.loc 1 335 0
	mov	w1, 6
.LVL363:
	mov	x0, x19
.LBB1675:
.LBB1676:
	.loc 4 291 0
	add	x21, x20, 696
.LBE1676:
.LBE1675:
	.loc 1 335 0
	bl	req_latency_check
.LVL364:
	.loc 1 337 0 discriminator 1
	mov	x0, x21
	bl	_raw_spin_lock_irqsave
.LVL365:
	mov	x1, x0
.LVL366:
	.loc 1 338 0
	ldr	x3, [x19,88]
	.loc 1 338 0 is_stmt 0 discriminator 1
	add	x4, x20, 656
	add	x2, x20, 680
.LBB1677:
.LBB1678:
	.loc 4 362 0 is_stmt 1
	mov	x0, x21
.LBE1678:
.LBE1677:
	.loc 1 338 0
	and	x3, x3, 32
	.loc 1 338 0 is_stmt 0 discriminator 1
	cmp	x3, xzr
	csel	x2, x2, x4, eq
.LBB1680:
.LBB1681:
	.loc 2 77 0 is_stmt 1
	ldr	x3, [x2,8]
.LBB1682:
.LBB1683:
	.loc 2 42 0
	str	x19, [x2,8]
	.loc 2 43 0
	str	x2, [x19]
	.loc 2 44 0
	str	x3, [x19,8]
	.loc 2 45 0
	str	x19, [x3]
.LBE1683:
.LBE1682:
.LBE1681:
.LBE1680:
.LBB1684:
.LBB1679:
	.loc 4 362 0
	bl	_raw_spin_unlock_irqrestore
.LVL367:
.LBE1679:
.LBE1684:
.LBB1685:
.LBB1686:
	.loc 1 314 0
	adrp	x1, kti_offset
	.loc 1 315 0
	ldrb	w3, [x20,2696]
.LBB1687:
.LBB1688:
	.loc 5 82 0
#APP
// 82 "/mnt/disk/jslave/ci/workspace/BKL_L04_B100_chipset/opensource/component_code/vendor/huawei/extra/build/build_script/kirin_kernel_release/kernel/arch/arm64/include/asm/thread_info.h" 1
	mrs x0, sp_el0
// 0 "" 2
.LVL368:
#NO_APP
.LBE1688:
.LBE1687:
	.loc 1 314 0
	ldr	x1, [x1,#:lo12:kti_offset]
	add	x0, x0, x1
.LVL369:
	.loc 1 315 0
	adrp	x1, .LANCHOR0+8
	.loc 1 314 0
	ldr	w4, [x0,28]
	.loc 1 315 0
	ldr	x1, [x1,#:lo12:.LANCHOR0+8]
.LVL370:
	mov	w0, w4
	sxtw	x4, w4
	lsl	x2, x4, 7
	sub	x4, x2, x4, lsl 4
.LVL371:
	add	x2, x20, x4
	add	x2, x2, 728
	bl	queue_delayed_work_on
.LVL372:
.LBE1686:
.LBE1685:
.LBE1674:
.LBE1673:
	.loc 1 998 0
	mov	w0, 1
.LVL373:
.L272:
	.loc 1 999 0
	ldp	x19, x20, [sp,16]
	.cfi_remember_state
	.cfi_restore 20
	.cfi_restore 19
.LVL374:
	ldp	x21, x22, [sp,32]
	.cfi_restore 22
	.cfi_restore 21
	ldr	x23, [sp,48]
	.cfi_restore 23
.LVL375:
	ldp	x29, x30, [sp], 64
	.cfi_restore 30
	.cfi_restore 29
	.cfi_def_cfa 31, 0
	ret
.LVL376:
.L277:
	.cfi_restore_state
	.loc 1 993 0
	mov	w0, 0
	.loc 1 999 0
	ldr	x23, [sp,48]
	.cfi_remember_state
	.cfi_restore 23
	ldp	x19, x20, [sp,16]
	.cfi_restore 19
	.cfi_restore 20
.LVL377:
	ldp	x21, x22, [sp,32]
	.cfi_restore 21
	.cfi_restore 22
	ldp	x29, x30, [sp], 64
	.cfi_restore 29
	.cfi_restore 30
	.cfi_def_cfa 31, 0
	ret
.LVL378:
.L278:
	.cfi_restore_state
	.loc 1 994 0 discriminator 1
	ldr	w21, [x0,96]
	cmp	w21, 1
	bne	.L273
.LBB1689:
.LBB1690:
.LBB1691:
.LBB1692:
	.loc 1 748 0
	mov	w1, 7
.LBB1693:
.LBB1694:
	.loc 4 291 0
	add	x22, x20, 1760
.LBE1694:
.LBE1693:
	.loc 1 748 0
	bl	req_latency_check
.LVL379:
	.loc 1 750 0 discriminator 1
	mov	x0, x22
	bl	_raw_spin_lock_irqsave
.LVL380:
	mov	x23, x0
.LVL381:
	.loc 1 751 0
	ldr	x2, [x20,648]
	mov	x0, x19
	mov	x1, x20
	ldr	x2, [x2,24]
	blr	x2
.LVL382:
.LBB1695:
.LBB1696:
	.loc 4 362 0
	mov	x0, x22
	mov	x1, x23
	bl	_raw_spin_unlock_irqrestore
.LVL383:
.LBE1696:
.LBE1695:
.LBE1692:
.LBE1691:
.LBB1697:
.LBB1698:
	.loc 1 727 0
	adrp	x1, kti_offset
	.loc 1 728 0
	ldrb	w3, [x20,2696]
.LBB1699:
.LBB1700:
	.loc 5 82 0
#APP
// 82 "/mnt/disk/jslave/ci/workspace/BKL_L04_B100_chipset/opensource/component_code/vendor/huawei/extra/build/build_script/kirin_kernel_release/kernel/arch/arm64/include/asm/thread_info.h" 1
	mrs x0, sp_el0
// 0 "" 2
.LVL384:
#NO_APP
.LBE1700:
.LBE1699:
	.loc 1 727 0
	ldr	x1, [x1,#:lo12:kti_offset]
	add	x0, x0, x1
.LVL385:
	.loc 1 728 0
	adrp	x1, .LANCHOR0
	.loc 1 727 0
	ldr	w2, [x0,28]
	.loc 1 728 0
	ldr	x1, [x1,#:lo12:.LANCHOR0]
.LVL386:
	mov	w0, w2
	sxtw	x2, w2
	lsl	x4, x2, 7
	sub	x2, x4, x2, lsl 4
.LVL387:
	add	x2, x20, x2
	add	x2, x2, 1784
	bl	queue_delayed_work_on
.LVL388:
.LBE1698:
.LBE1697:
.LBE1690:
.LBE1689:
	.loc 1 998 0
	mov	w0, w21
	b	.L272
	.cfi_endproc
.LFE2951:
	.size	hisi_blk_mq_requeue_req, .-hisi_blk_mq_requeue_req
	.align	2
	.global	hisi_blk_mq_run_list
	.type	hisi_blk_mq_run_list, %function
hisi_blk_mq_run_list:
.LFB2952:
	.loc 1 1002 0
	.cfi_startproc
.LVL389:
	stp	x29, x30, [sp, -64]!
	.cfi_def_cfa_offset 64
	.cfi_offset 29, -64
	.cfi_offset 30, -56
	add	x29, sp, 0
	.cfi_def_cfa_register 29
	stp	x19, x20, [sp,16]
	stp	x21, x22, [sp,32]
	.cfi_offset 19, -48
	.cfi_offset 20, -40
	.cfi_offset 21, -32
	.cfi_offset 22, -24
	.loc 1 1003 0
	ldrb	w1, [x0,624]
	cbz	w1, .L281
.LBB1701:
.LBB1702:
	.loc 1 307 0
	adrp	x1, kti_offset
	mov	x19, x0
.LBB1703:
.LBB1704:
	.loc 5 82 0
#APP
// 82 "/mnt/disk/jslave/ci/workspace/BKL_L04_B100_chipset/opensource/component_code/vendor/huawei/extra/build/build_script/kirin_kernel_release/kernel/arch/arm64/include/asm/thread_info.h" 1
	mrs x0, sp_el0
// 0 "" 2
.LVL390:
#NO_APP
.LBE1704:
.LBE1703:
	.loc 1 308 0
	mov	x3, 0
.LBE1702:
.LBE1701:
.LBB1707:
.LBB1708:
.LBB1709:
.LBB1710:
	.loc 4 291 0
	add	x20, x19, 1760
.LBE1710:
.LBE1709:
.LBE1708:
.LBE1707:
.LBB1714:
.LBB1705:
	.loc 1 307 0
	ldr	x2, [x1,#:lo12:kti_offset]
	.loc 1 308 0
	adrp	x1, .LANCHOR0+8
.LBE1705:
.LBE1714:
	.loc 1 1008 0
	mov	w21, 1
.LBB1715:
.LBB1706:
	.loc 1 307 0
	add	x0, x0, x2
.LVL391:
	.loc 1 308 0
	ldr	x1, [x1,#:lo12:.LANCHOR0+8]
	.loc 1 307 0
	ldr	w2, [x0,28]
.LVL392:
	.loc 1 308 0
	mov	w0, w2
	sxtw	x2, w2
	lsl	x4, x2, 7
	sub	x2, x4, x2, lsl 4
.LVL393:
	add	x2, x19, x2
	add	x2, x2, 728
	bl	queue_delayed_work_on
.LVL394:
.LBE1706:
.LBE1715:
.LBB1716:
.LBB1713:
	.loc 1 760 0 discriminator 1
	mov	x0, x20
	bl	_raw_spin_lock_irqsave
.LVL395:
	str	x0, [x29,56]
	.loc 1 761 0
	ldr	x2, [x19,648]
	mov	x0, x19
.LVL396:
	ldr	x2, [x2,40]
	blr	x2
.LVL397:
	uxtb	w22, w0
.LVL398:
.LBB1711:
.LBB1712:
	.loc 4 362 0
	ldr	x1, [x29,56]
.LVL399:
	mov	x0, x20
	bl	_raw_spin_unlock_irqrestore
.LVL400:
.LBE1712:
.LBE1711:
.LBE1713:
.LBE1716:
	.loc 1 1006 0
	cbnz	w22, .L280
	.loc 1 1007 0
	mov	x0, x19
	bl	hisi_blk_mq_run_async_list
.LVL401:
.L280:
	.loc 1 1009 0
	mov	w0, w21
	ldp	x19, x20, [sp,16]
	.cfi_remember_state
	.cfi_restore 20
	.cfi_restore 19
.LVL402:
	ldp	x21, x22, [sp,32]
	.cfi_restore 22
	.cfi_restore 21
.LVL403:
	ldp	x29, x30, [sp], 64
	.cfi_restore 30
	.cfi_restore 29
	.cfi_def_cfa 31, 0
	ret
.LVL404:
.L281:
	.cfi_restore_state
	.loc 1 1004 0
	mov	w21, 0
	.loc 1 1009 0
	mov	w0, w21
.LVL405:
	ldp	x19, x20, [sp,16]
	.cfi_restore 19
	.cfi_restore 20
	ldp	x21, x22, [sp,32]
	.cfi_restore 21
	.cfi_restore 22
	ldp	x29, x30, [sp], 64
	.cfi_restore 29
	.cfi_restore 30
	.cfi_def_cfa 31, 0
	ret
	.cfi_endproc
.LFE2952:
	.size	hisi_blk_mq_run_list, .-hisi_blk_mq_run_list
	.align	2
	.global	hisi_blk_mq_run_list_directly
	.type	hisi_blk_mq_run_list_directly, %function
hisi_blk_mq_run_list_directly:
.LFB2953:
	.loc 1 1012 0
	.cfi_startproc
.LVL406:
	stp	x29, x30, [sp, -64]!
	.cfi_def_cfa_offset 64
	.cfi_offset 29, -64
	.cfi_offset 30, -56
	add	x29, sp, 0
	.cfi_def_cfa_register 29
	stp	x19, x20, [sp,16]
	stp	x21, x22, [sp,32]
	.cfi_offset 19, -48
	.cfi_offset 20, -40
	.cfi_offset 21, -32
	.cfi_offset 22, -24
	.loc 1 1012 0
	mov	x19, x0
	.loc 1 1013 0
	ldrb	w1, [x0,624]
	cbz	w1, .L285
	.loc 1 1015 0
	bl	hisi_blk_mq_sync_dispatch
.LVL407:
.LBB1717:
.LBB1718:
.LBB1719:
.LBB1720:
	.loc 4 291 0
	add	x20, x19, 1760
.LBE1720:
.LBE1719:
	.loc 1 760 0 discriminator 1
	mov	x0, x20
.LBE1718:
.LBE1717:
	.loc 1 1018 0
	mov	w21, 1
.LBB1724:
.LBB1723:
	.loc 1 760 0 discriminator 1
	bl	_raw_spin_lock_irqsave
.LVL408:
	str	x0, [x29,56]
	.loc 1 761 0
	ldr	x2, [x19,648]
	mov	x0, x19
.LVL409:
	ldr	x2, [x2,40]
	blr	x2
.LVL410:
	uxtb	w22, w0
.LVL411:
.LBB1721:
.LBB1722:
	.loc 4 362 0
	ldr	x1, [x29,56]
.LVL412:
	mov	x0, x20
	bl	_raw_spin_unlock_irqrestore
.LVL413:
.LBE1722:
.LBE1721:
.LBE1723:
.LBE1724:
	.loc 1 1016 0
	cbnz	w22, .L284
	.loc 1 1017 0
	mov	x0, x19
	bl	hisi_blk_mq_run_async_list
.LVL414:
.L284:
	.loc 1 1019 0
	mov	w0, w21
	ldp	x19, x20, [sp,16]
	.cfi_remember_state
	.cfi_restore 20
	.cfi_restore 19
.LVL415:
	ldp	x21, x22, [sp,32]
	.cfi_restore 22
	.cfi_restore 21
.LVL416:
	ldp	x29, x30, [sp], 64
	.cfi_restore 30
	.cfi_restore 29
	.cfi_def_cfa 31, 0
	ret
.LVL417:
.L285:
	.cfi_restore_state
	.loc 1 1014 0
	mov	w21, 0
	.loc 1 1019 0
	mov	w0, w21
.LVL418:
	ldp	x19, x20, [sp,16]
	.cfi_restore 19
	.cfi_restore 20
.LVL419:
	ldp	x21, x22, [sp,32]
	.cfi_restore 21
	.cfi_restore 22
	ldp	x29, x30, [sp], 64
	.cfi_restore 29
	.cfi_restore 30
	.cfi_def_cfa 31, 0
	ret
	.cfi_endproc
.LFE2953:
	.size	hisi_blk_mq_run_list_directly, .-hisi_blk_mq_run_list_directly
	.align	2
	.global	hisi_blk_mq_complete_request
	.type	hisi_blk_mq_complete_request, %function
hisi_blk_mq_complete_request:
.LFB2955:
	.loc 1 1031 0
	.cfi_startproc
.LVL420:
	stp	x29, x30, [sp, -32]!
	.cfi_def_cfa_offset 32
	.cfi_offset 29, -32
	.cfi_offset 30, -24
	uxtb	w2, w2
	add	x29, sp, 0
	.cfi_def_cfa_register 29
	stp	x19, x20, [sp,16]
	.cfi_offset 19, -16
	.cfi_offset 20, -8
	.loc 1 1032 0
	ldrb	w3, [x1,624]
	cbz	w3, .L294
	mov	x19, x0
	mov	x20, x1
	.loc 1 1038 0 discriminator 1
	cbz	w2, .L289
	.loc 1 1038 0 is_stmt 0
	ldr	w0, [x0,96]
.LVL421:
	.loc 1 1038 0 discriminator 1
	cmp	w0, 1
	bne	.L289
	ldr	x0, [x19,88]
.LBB1725:
.LBB1726:
	.loc 1 232 0 is_stmt 1
	tbz	x0, 4, .L290
	.loc 1 233 0
	tbnz	x0, 5, .L304
.LBB1727:
.LBB1728:
	.loc 7 91 0
	add	x2, x20, 720
.LVL422:
#APP
// 91 "/mnt/disk/jslave/ci/workspace/BKL_L04_B100_chipset/opensource/component_code/vendor/huawei/extra/build/build_script/kirin_kernel_release/kernel/arch/arm64/include/asm/atomic_ll_sc.h" 1
	// atomic_sub
	prfm	pstl1strm, [x2]
1:	ldxr	w0, [x2]
	sub	w0, w0, 1
	stxr	w1, w0, [x2]
	cbnz	w1, 1b
// 0 "" 2
.LVL423:
#NO_APP
.L292:
.LBE1728:
.LBE1727:
	.loc 1 247 0
	bl	ktime_get
.LVL424:
	str	x0, [x20,1688]
.LVL425:
.L289:
.LBE1726:
.LBE1725:
	.loc 1 1040 0
	adrp	x0, kti_offset
	ldr	x3, [x19,80]
.LBB1734:
.LBB1735:
	.loc 5 82 0
#APP
// 82 "/mnt/disk/jslave/ci/workspace/BKL_L04_B100_chipset/opensource/component_code/vendor/huawei/extra/build/build_script/kirin_kernel_release/kernel/arch/arm64/include/asm/thread_info.h" 1
	mrs x1, sp_el0
// 0 "" 2
.LVL426:
#NO_APP
.LBE1735:
.LBE1734:
	.loc 1 1040 0
	ldr	x2, [x0,#:lo12:kti_offset]
.LVL427:
	ldr	w0, [x3,64]
	add	x1, x1, x2
.LVL428:
	ldr	w1, [x1,28]
	cmp	w0, w1
	beq	.L293
.LBB1736:
.LBB1737:
.LBB1738:
.LBB1739:
	.file 15 "/mnt/disk/jslave/ci/workspace/BKL_L04_B100_chipset/opensource/component_code/vendor/huawei/extra/build/build_script/kirin_kernel_release/kernel/include/asm-generic/bitops/non-atomic.h"
	.loc 15 105 0
	adrp	x2, cpu_online_mask
	add	w1, w0, 63
	cmp	w0, wzr
	csel	w1, w1, w0, lt
	asr	w1, w1, 6
	ldr	x2, [x2,#:lo12:cpu_online_mask]
	ldr	x1, [x2,w1,sxtw 3]
	lsr	x0, x1, x0
.LBE1739:
.LBE1738:
.LBE1737:
.LBE1736:
	.loc 1 1040 0 discriminator 1
	tbnz	x0, 0, .L305
.L293:
	.loc 1 1046 0
	mov	x0, x19
	bl	hisi_blk_complete_request
.LVL429:
	.loc 1 1047 0
	mov	w0, 1
	.loc 1 1048 0
	ldp	x19, x20, [sp,16]
	.cfi_remember_state
	.cfi_restore 20
	.cfi_restore 19
.LVL430:
	ldp	x29, x30, [sp], 32
	.cfi_restore 30
	.cfi_restore 29
	.cfi_def_cfa 31, 0
	ret
.LVL431:
.L305:
	.cfi_restore_state
	.loc 1 1041 0
	adrp	x0, __hisi_blk_mq_complete_request_remote
	.loc 1 1042 0
	str	x19, [x19,48]
	.loc 1 1043 0
	str	wzr, [x19,56]
	.loc 1 1041 0
	add	x0, x0, :lo12:__hisi_blk_mq_complete_request_remote
	str	x0, [x19,40]
	.loc 1 1044 0
	add	x1, x19, 32
	ldr	w0, [x3,64]
	bl	smp_call_function_single_async
.LVL432:
	.loc 1 1047 0
	mov	w0, 1
	.loc 1 1048 0
	ldp	x19, x20, [sp,16]
	.cfi_remember_state
	.cfi_restore 19
	.cfi_restore 20
.LVL433:
	ldp	x29, x30, [sp], 32
	.cfi_restore 29
	.cfi_restore 30
	.cfi_def_cfa 31, 0
	ret
.LVL434:
.L294:
	.cfi_restore_state
	.loc 1 1033 0
	mov	w0, 0
.LVL435:
	.loc 1 1048 0
	ldp	x19, x20, [sp,16]
	.cfi_remember_state
	.cfi_restore 19
	.cfi_restore 20
	ldp	x29, x30, [sp], 32
	.cfi_restore 29
	.cfi_restore 30
	.cfi_def_cfa 31, 0
	ret
.LVL436:
.L290:
	.cfi_restore_state
.LBB1740:
.LBB1733:
.LBB1729:
.LBB1730:
	.loc 7 91 0
	add	x2, x20, 2680
.LVL437:
#APP
// 91 "/mnt/disk/jslave/ci/workspace/BKL_L04_B100_chipset/opensource/component_code/vendor/huawei/extra/build/build_script/kirin_kernel_release/kernel/arch/arm64/include/asm/atomic_ll_sc.h" 1
	// atomic_sub
	prfm	pstl1strm, [x2]
1:	ldxr	w0, [x2]
	sub	w0, w0, 1
	stxr	w1, w0, [x2]
	cbnz	w1, 1b
// 0 "" 2
.LVL438:
#NO_APP
.LBE1730:
.LBE1729:
	.loc 1 255 0
	bl	ktime_get
.LVL439:
	str	x0, [x20,1696]
	b	.L289
.LVL440:
.L304:
.LBB1731:
.LBB1732:
	.loc 7 91 0
	add	x2, x20, 672
.LVL441:
#APP
// 91 "/mnt/disk/jslave/ci/workspace/BKL_L04_B100_chipset/opensource/component_code/vendor/huawei/extra/build/build_script/kirin_kernel_release/kernel/arch/arm64/include/asm/atomic_ll_sc.h" 1
	// atomic_sub
	prfm	pstl1strm, [x2]
1:	ldxr	w0, [x2]
	sub	w0, w0, 1
	stxr	w1, w0, [x2]
	cbnz	w1, 1b
// 0 "" 2
.LVL442:
#NO_APP
	b	.L292
.LBE1732:
.LBE1731:
.LBE1733:
.LBE1740:
	.cfi_endproc
.LFE2955:
	.size	hisi_blk_mq_complete_request, .-hisi_blk_mq_complete_request
	.align	2
	.global	hisi_blk_mq_rq_timed_out
	.type	hisi_blk_mq_rq_timed_out, %function
hisi_blk_mq_rq_timed_out:
.LFB2957:
	.loc 1 1057 0
	.cfi_startproc
.LVL443:
	stp	x29, x30, [sp, -48]!
	.cfi_def_cfa_offset 48
	.cfi_offset 29, -48
	.cfi_offset 30, -40
	uxtb	w1, w1
	add	x29, sp, 0
	.cfi_def_cfa_register 29
	stp	x19, x20, [sp,16]
	str	x21, [sp,32]
	.cfi_offset 19, -32
	.cfi_offset 20, -24
	.cfi_offset 21, -16
	.loc 1 1057 0
	mov	x19, x0
	.loc 1 1058 0
	ldr	x20, [x0,64]
	ldrb	w2, [x20,624]
	cbz	w2, .L332
.LBB1741:
.LBB1742:
.LBB1743:
	.loc 15 105 0
	ldr	x0, [x0,104]
.LBE1743:
.LBE1742:
	.loc 1 1062 0
	ldr	x21, [x20,288]
.LVL444:
	.loc 1 1064 0
	tbz	x0, 1, .L306
	.loc 1 1066 0
	ldr	w0, [x19,96]
	cmp	w0, 1
	bne	.L309
	ldr	x0, [x19,88]
.LBB1744:
.LBB1745:
	.loc 1 232 0
	tbz	x0, 4, .L310
.LVL445:
	.loc 1 233 0
	tbnz	x0, 5, .L333
.LBB1746:
.LBB1747:
	.loc 7 91 0
	add	x2, x20, 720
#APP
// 91 "/mnt/disk/jslave/ci/workspace/BKL_L04_B100_chipset/opensource/component_code/vendor/huawei/extra/build/build_script/kirin_kernel_release/kernel/arch/arm64/include/asm/atomic_ll_sc.h" 1
	// atomic_sub
	prfm	pstl1strm, [x2]
1:	ldxr	w0, [x2]
	sub	w0, w0, 1
	stxr	w1, w0, [x2]
	cbnz	w1, 1b
// 0 "" 2
.LVL446:
#NO_APP
.L312:
.LBE1747:
.LBE1746:
	.loc 1 247 0
	bl	ktime_get
.LVL447:
	str	x0, [x20,1688]
.L313:
.LBE1745:
.LBE1744:
	.loc 1 1072 0
	ldr	x2, [x21,16]
	cbz	x2, .L314
.LVL448:
.L321:
	.loc 1 1073 0
	mov	x0, x19
	mov	w1, 0
.LVL449:
	blr	x2
.LVL450:
	.loc 1 1075 0
	cmp	w0, 2
	beq	.L314
	cmp	w0, 3
	beq	.L315
	cmp	w0, 1
	beq	.L334
.LVL451:
.L306:
.LBE1741:
	.loc 1 1096 0
	ldp	x19, x20, [sp,16]
	.cfi_remember_state
	.cfi_restore 20
	.cfi_restore 19
.LVL452:
	ldr	x21, [sp,32]
	.cfi_restore 21
.LVL453:
	ldp	x29, x30, [sp], 48
	.cfi_restore 30
	.cfi_restore 29
	.cfi_def_cfa 31, 0
	ret
.LVL454:
.L334:
	.cfi_restore_state
.LBB1770:
	.loc 1 1078 0
	mov	x0, x19
.LVL455:
	bl	blk_mq_stat_add
.LVL456:
	.loc 1 1080 0
	ldr	x1, [x19,64]
.LVL457:
	mov	x0, x19
	mov	w2, 0
	bl	hisi_blk_mq_complete_request
.LVL458:
.LBE1770:
	.loc 1 1096 0
	ldr	x21, [sp,32]
	.cfi_remember_state
	.cfi_restore 21
.LVL459:
	ldp	x19, x20, [sp,16]
	.cfi_restore 19
	.cfi_restore 20
.LVL460:
	ldp	x29, x30, [sp], 48
	.cfi_restore 29
	.cfi_restore 30
	.cfi_def_cfa 31, 0
	ret
.LVL461:
.L309:
	.cfi_restore_state
.LBB1771:
	.loc 1 1072 0
	ldr	x2, [x21,16]
	cbnz	x2, .L321
.LVL462:
.L318:
	.loc 1 1084 0
	mov	x0, x19
	bl	blk_add_timer
.LVL463:
.LBB1753:
.LBB1754:
	.file 16 "/mnt/disk/jslave/ci/workspace/BKL_L04_B100_chipset/opensource/component_code/vendor/huawei/extra/build/build_script/kirin_kernel_release/kernel/block/blk.h"
	.loc 16 248 0
	mov	w0, 0
	add	x1, x19, 104
	bl	clear_bit
.LVL464:
.L336:
.LBE1754:
.LBE1753:
.LBE1771:
	.loc 1 1096 0
	ldp	x19, x20, [sp,16]
	.cfi_remember_state
	.cfi_restore 19
	.cfi_restore 20
.LVL465:
	ldr	x21, [sp,32]
	.cfi_restore 21
.LVL466:
	ldp	x29, x30, [sp], 48
	.cfi_restore 29
	.cfi_restore 30
	.cfi_def_cfa 31, 0
	ret
.LVL467:
.L315:
	.cfi_restore_state
.LBB1772:
.LBB1756:
.LBB1757:
	.loc 1 1052 0
	mov	x0, x19
.LVL468:
	bl	blk_mq_requeue_request
.LVL469:
	.loc 1 1053 0
	ldr	x0, [x19,64]
	bl	blk_mq_kick_requeue_list
.LVL470:
.LBE1757:
.LBE1756:
.LBE1772:
	.loc 1 1096 0
	ldr	x21, [sp,32]
	.cfi_remember_state
	.cfi_restore 21
.LVL471:
	ldp	x19, x20, [sp,16]
	.cfi_restore 19
	.cfi_restore 20
.LVL472:
	ldp	x29, x30, [sp], 48
	.cfi_restore 29
	.cfi_restore 30
	.cfi_def_cfa 31, 0
	ret
.LVL473:
.L314:
	.cfi_restore_state
.LBB1773:
.LBB1758:
.LBB1759:
	.loc 1 218 0
	ldr	w0, [x19,96]
.LVL474:
	cmp	w0, 1
	bne	.L318
	.loc 1 220 0
	ldr	x0, [x19,88]
	tbz	x0, 4, .L319
	.loc 1 221 0
	tbnz	x0, 5, .L335
	.loc 1 224 0
	ldr	x0, [x19,64]
.LBB1760:
.LBB1761:
	.loc 7 90 0
	add	x0, x0, 720
#APP
// 90 "/mnt/disk/jslave/ci/workspace/BKL_L04_B100_chipset/opensource/component_code/vendor/huawei/extra/build/build_script/kirin_kernel_release/kernel/arch/arm64/include/asm/atomic_ll_sc.h" 1
	// atomic_add
	prfm	pstl1strm, [x0]
1:	ldxr	w1, [x0]
	add	w1, w1, 1
	stxr	w2, w1, [x0]
	cbnz	w2, 1b
// 0 "" 2
.LVL475:
#NO_APP
.LBE1761:
.LBE1760:
.LBE1759:
.LBE1758:
	.loc 1 1084 0
	mov	x0, x19
	bl	blk_add_timer
.LVL476:
.LBB1767:
.LBB1755:
	.loc 16 248 0
	mov	w0, 0
	add	x1, x19, 104
	bl	clear_bit
.LVL477:
	b	.L336
.LVL478:
.L332:
.LBE1755:
.LBE1767:
.LBE1773:
	.loc 1 1059 0
	bl	blk_mq_rq_timed_out
.LVL479:
	.loc 1 1096 0
	ldr	x21, [sp,32]
	.cfi_remember_state
	.cfi_restore 21
	ldp	x19, x20, [sp,16]
	.cfi_restore 19
	.cfi_restore 20
.LVL480:
	ldp	x29, x30, [sp], 48
	.cfi_restore 29
	.cfi_restore 30
	.cfi_def_cfa 31, 0
	ret
.LVL481:
.L310:
	.cfi_restore_state
.LBB1774:
.LBB1768:
.LBB1752:
.LBB1748:
.LBB1749:
	.loc 7 91 0
	add	x2, x20, 2680
#APP
// 91 "/mnt/disk/jslave/ci/workspace/BKL_L04_B100_chipset/opensource/component_code/vendor/huawei/extra/build/build_script/kirin_kernel_release/kernel/arch/arm64/include/asm/atomic_ll_sc.h" 1
	// atomic_sub
	prfm	pstl1strm, [x2]
1:	ldxr	w0, [x2]
	sub	w0, w0, 1
	stxr	w1, w0, [x2]
	cbnz	w1, 1b
// 0 "" 2
.LVL482:
#NO_APP
.LBE1749:
.LBE1748:
	.loc 1 255 0
	bl	ktime_get
.LVL483:
	str	x0, [x20,1696]
	b	.L313
.L333:
.LBB1750:
.LBB1751:
	.loc 7 91 0
	add	x2, x20, 672
#APP
// 91 "/mnt/disk/jslave/ci/workspace/BKL_L04_B100_chipset/opensource/component_code/vendor/huawei/extra/build/build_script/kirin_kernel_release/kernel/arch/arm64/include/asm/atomic_ll_sc.h" 1
	// atomic_sub
	prfm	pstl1strm, [x2]
1:	ldxr	w0, [x2]
	sub	w0, w0, 1
	stxr	w1, w0, [x2]
	cbnz	w1, 1b
// 0 "" 2
.LVL484:
#NO_APP
	b	.L312
.LVL485:
.L319:
.LBE1751:
.LBE1750:
.LBE1752:
.LBE1768:
.LBB1769:
.LBB1766:
	.loc 1 226 0
	ldr	x0, [x19,64]
.LBB1762:
.LBB1763:
	.loc 7 90 0
	add	x0, x0, 2680
#APP
// 90 "/mnt/disk/jslave/ci/workspace/BKL_L04_B100_chipset/opensource/component_code/vendor/huawei/extra/build/build_script/kirin_kernel_release/kernel/arch/arm64/include/asm/atomic_ll_sc.h" 1
	// atomic_add
	prfm	pstl1strm, [x0]
1:	ldxr	w1, [x0]
	add	w1, w1, 1
	stxr	w2, w1, [x0]
	cbnz	w2, 1b
// 0 "" 2
.LVL486:
#NO_APP
	b	.L318
.LVL487:
.L335:
.LBE1763:
.LBE1762:
	.loc 1 222 0
	ldr	x0, [x19,64]
.LBB1764:
.LBB1765:
	.loc 7 90 0
	add	x0, x0, 672
#APP
// 90 "/mnt/disk/jslave/ci/workspace/BKL_L04_B100_chipset/opensource/component_code/vendor/huawei/extra/build/build_script/kirin_kernel_release/kernel/arch/arm64/include/asm/atomic_ll_sc.h" 1
	// atomic_add
	prfm	pstl1strm, [x0]
1:	ldxr	w1, [x0]
	add	w1, w1, 1
	stxr	w2, w1, [x0]
	cbnz	w2, 1b
// 0 "" 2
.LVL488:
#NO_APP
	b	.L318
.LBE1765:
.LBE1764:
.LBE1766:
.LBE1769:
.LBE1774:
	.cfi_endproc
.LFE2957:
	.size	hisi_blk_mq_rq_timed_out, .-hisi_blk_mq_rq_timed_out
	.align	2
	.global	hisi_blk_mq_poll
	.type	hisi_blk_mq_poll, %function
hisi_blk_mq_poll:
.LFB2958:
	.loc 1 1099 0
	.cfi_startproc
.LVL489:
	.loc 1 1100 0
	ldrb	w0, [x0,624]
.LVL490:
	cbz	w0, .L339
.LBB1775:
	.loc 1 1102 0
#APP
// 1102 "/mnt/disk/jslave/ci/workspace/BKL_L04_B100_chipset/opensource/component_code/vendor/huawei/extra/build/build_script/kirin_kernel_release/kernel/block/hisi-blk-mq-dispatch-strategy.c" 1
	dmb ish
// 0 "" 2
#NO_APP
	adrp	x0, cpu_online_mask
	ldr	x4, [x0,#:lo12:cpu_online_mask]
.LBB1776:
.LBB1777:
.LBB1778:
	.loc 15 105 0
	ldr	x3, [x4]
	ldr	x1, [x4]
.LVL491:
	ldr	x0, [x4]
	and	w3, w3, 1
	ldr	x2, [x4]
	ubfx	x1, x1, 1, 1
	ldr	x5, [x4]
	add	w1, w1, w3
	ubfx	x0, x0, 2, 1
	ldr	x3, [x4]
	add	w0, w0, w1
	ubfx	x2, x2, 3, 1
	ldr	x1, [x4]
	add	w2, w2, w0
	ubfx	x5, x5, 4, 1
	ubfx	x3, x3, 5, 1
	add	w2, w5, w2
	ldr	x0, [x4]
	add	w2, w3, w2
	ubfx	x1, x1, 6, 1
	add	w1, w1, w2
	ubfx	x0, x0, 7, 1
	add	w0, w0, w1
.LBE1778:
.LBE1777:
.LBE1776:
	.loc 1 1107 0
	cmp	w0, 1
	cset	w0, gt
.LBE1775:
	.loc 1 1110 0
	ret
.LVL492:
.L339:
	.loc 1 1109 0
	mov	w0, 0
	.loc 1 1110 0
	ret
	.cfi_endproc
.LFE2958:
	.size	hisi_blk_mq_poll, .-hisi_blk_mq_poll
	.align	2
	.global	hisi_blk_mq_async_sched_set
	.type	hisi_blk_mq_async_sched_set, %function
hisi_blk_mq_async_sched_set:
.LFB2961:
	.loc 1 1137 0
	.cfi_startproc
.LVL493:
	.loc 1 1157 0
	adrp	x1, .LANCHOR1
.LVL494:
	add	x2, x1, :lo12:.LANCHOR1
	.loc 1 1162 0
	add	x1, x1, :lo12:.LANCHOR1
	.loc 1 1137 0
	stp	x29, x30, [sp, -16]!
	.cfi_def_cfa_offset 16
	.cfi_offset 29, -16
	.cfi_offset 30, -8
	.loc 1 1157 0
	add	x2, x2, 48
	.loc 1 1137 0
	add	x29, sp, 0
	.cfi_def_cfa_register 29
	.loc 1 1162 0
	ldr	x1, [x1,48]
	.loc 1 1158 0
	str	wzr, [x0,640]
	.loc 1 1157 0
	str	x2, [x0,648]
	.loc 1 1162 0
	blr	x1
.LVL495:
	.loc 1 1163 0
	ldp	x29, x30, [sp], 16
	.cfi_restore 30
	.cfi_restore 29
	.cfi_def_cfa 31, 0
	ret
	.cfi_endproc
.LFE2961:
	.size	hisi_blk_mq_async_sched_set, .-hisi_blk_mq_async_sched_set
	.align	2
	.global	hisi_blk_mq_dispatch_strategy_init
	.type	hisi_blk_mq_dispatch_strategy_init, %function
hisi_blk_mq_dispatch_strategy_init:
.LFB2962:
	.loc 1 1166 0
	.cfi_startproc
.LVL496:
	stp	x29, x30, [sp, -96]!
	.cfi_def_cfa_offset 96
	.cfi_offset 29, -96
	.cfi_offset 30, -88
	add	x29, sp, 0
	.cfi_def_cfa_register 29
	stp	x19, x20, [sp,16]
	stp	x21, x22, [sp,32]
	stp	x23, x24, [sp,48]
	stp	x25, x26, [sp,64]
	str	x27, [sp,80]
	.cfi_offset 19, -80
	.cfi_offset 20, -72
	.cfi_offset 21, -64
	.cfi_offset 22, -56
	.cfi_offset 23, -48
	.cfi_offset 24, -40
	.cfi_offset 25, -32
	.cfi_offset 26, -24
	.cfi_offset 27, -16
	.loc 1 1166 0
	mov	x20, x0
.LBB1779:
.LBB1780:
.LBB1781:
	.loc 3 246 0
	str	wzr, [x0,2680]
	add	x19, x0, 728
.LBE1781:
.LBE1780:
.LBE1779:
.LBB1782:
.LBB1783:
.LBB1784:
	str	wzr, [x0,672]
.LBE1784:
.LBE1783:
.LBE1782:
.LBB1785:
	.loc 1 1177 0 discriminator 1
	adrp	x26, .LANCHOR0
.LBE1785:
	.loc 1 1168 0
	strb	wzr, [x0,2696]
.LBB1786:
	.loc 1 1177 0 discriminator 1
	add	x24, x26, :lo12:.LANCHOR0
.LBE1786:
.LBB1787:
.LBB1788:
.LBB1789:
	.loc 3 246 0
	str	wzr, [x0,720]
.LBE1789:
.LBE1788:
.LBE1787:
	.loc 1 1172 0
	mov	w0, 28
.LVL497:
	str	w0, [x20,724]
	.loc 1 1173 0
	mov	w0, 12
	str	w0, [x20,2684]
.LBB1790:
	.loc 1 1177 0 discriminator 1
	add	x24, x24, 120
	adrp	x27, delayed_work_timer_fn
	adrp	x25, hisi_blk_mq_sync_io_dispatch_work_fn
.LBE1790:
	.loc 1 1174 0
	bl	ktime_get
.LVL498:
	str	x0, [x20,2688]
	.loc 1 1175 0
	add	x1, x20, 656
	.loc 1 1176 0
	add	x3, x20, 680
.LBB1791:
.LBB1792:
	.loc 2 27 0
	str	x1, [x20,656]
.LBE1792:
.LBE1791:
.LBB1794:
	.loc 1 1177 0 discriminator 1
	mov	x2, x24
	add	x0, x20, 696
.LBE1794:
	.loc 1 1179 0
	mov	w21, 0
.LVL499:
.LBB1795:
.LBB1793:
	.loc 2 28 0
	str	x1, [x1,8]
.LBE1793:
.LBE1795:
.LBB1796:
	.loc 1 1177 0 discriminator 1
	adrp	x1, .LC0
.LBE1796:
.LBB1797:
.LBB1798:
	.loc 2 27 0
	str	x3, [x20,680]
.LBE1798:
.LBE1797:
.LBB1800:
	.loc 1 1177 0 discriminator 1
	add	x1, x1, :lo12:.LC0
.LBE1800:
.LBB1801:
.LBB1799:
	.loc 2 28 0
	str	x3, [x3,8]
.LBE1799:
.LBE1801:
	.loc 1 1184 0
	mov	x23, 68719476704
	add	x22, x27, :lo12:delayed_work_timer_fn
	add	x25, x25, :lo12:hisi_blk_mq_sync_io_dispatch_work_fn
.LBB1802:
	.loc 1 1177 0 discriminator 1
	bl	__raw_spin_lock_init
.LVL500:
.LBE1802:
.LBB1803:
	.loc 1 1178 0 discriminator 1
	mov	x2, x24
	adrp	x1, .LC1
.LBE1803:
	.loc 1 1185 0
	adrp	x24, hisi_blk_mq_async_io_dispatch_work_fn
.LBB1804:
	.loc 1 1178 0 discriminator 1
	add	x0, x20, 1760
	add	x1, x1, :lo12:.LC1
.LBE1804:
	.loc 1 1185 0
	add	x24, x24, :lo12:hisi_blk_mq_async_io_dispatch_work_fn
.LBB1805:
	.loc 1 1178 0 discriminator 1
	bl	__raw_spin_lock_init
.LVL501:
.L346:
.LBE1805:
	.loc 1 1184 0
	mov	x4, x19
	.loc 1 1182 0
	str	w21, [x19,104]
	.loc 1 1183 0
	str	w21, [x19,1160]
	.loc 1 1184 0 discriminator 2
	add	x0, x19, 32
	.loc 1 1180 0
	str	x20, [x19,96]
	.loc 1 1184 0 discriminator 2
	mov	w1, 2097152
	.loc 1 1181 0
	str	x20, [x19,1152]
	.loc 1 1184 0 discriminator 2
	mov	x2, 0
	.loc 1 1184 0 is_stmt 0
	str	x23, [x4],8
	.loc 1 1184 0 discriminator 2
	mov	x3, 0
	.loc 1 1184 0
	str	x25, [x19,24]
	.loc 1 1179 0 is_stmt 1 discriminator 3
	add	w21, w21, 1
.LBB1806:
.LBB1807:
	.loc 2 27 0
	str	x4, [x19,8]
	.loc 2 28 0
	str	x4, [x19,16]
.LBE1807:
.LBE1806:
	.loc 1 1184 0 discriminator 2
	bl	init_timer_key
.LVL502:
	.loc 1 1184 0 is_stmt 0
	str	x22, [x19,56]
	add	x4, x19, 1064
	.loc 1 1185 0 is_stmt 1 discriminator 2
	add	x0, x19, 1088
	.loc 1 1184 0
	str	x19, [x19,64]
	.loc 1 1185 0 discriminator 2
	mov	w1, 2097152
	.loc 1 1185 0 is_stmt 0
	str	x23, [x19,1056]
	.loc 1 1185 0 discriminator 2
	mov	x2, 0
.LBB1808:
.LBB1809:
	.loc 2 27 0 is_stmt 1
	str	x4, [x19,1064]
.LBE1809:
.LBE1808:
	.loc 1 1185 0 discriminator 2
	mov	x3, 0
.LBB1811:
.LBB1810:
	.loc 2 28 0
	str	x4, [x19,1072]
.LBE1810:
.LBE1811:
	.loc 1 1185 0
	str	x24, [x19,1080]
	.loc 1 1185 0 is_stmt 0 discriminator 2
	bl	init_timer_key
.LVL503:
	.loc 1 1185 0
	str	x22, [x19,1112]
	add	x0, x19, 1056
	.loc 1 1179 0 is_stmt 1 discriminator 1
	cmp	w21, 8
	.loc 1 1185 0
	str	x0, [x19,1120]
	add	x19, x19, 112
	.loc 1 1179 0 discriminator 1
	bne	.L346
	.loc 1 1187 0
	bl	ktime_get
.LVL504:
	str	x0, [x20,1680]
.LBB1812:
.LBB1813:
	.loc 1 1140 0
	adrp	x19, .LANCHOR1
.LBE1813:
.LBE1812:
	.loc 1 1197 0
	add	x21, x26, :lo12:.LANCHOR0
.LVL505:
	.loc 1 1188 0
	bl	ktime_get
.LVL506:
	str	x0, [x20,1688]
	.loc 1 1189 0
	bl	ktime_get
.LVL507:
	str	x0, [x20,1696]
	.loc 1 1190 0
	bl	ktime_get
.LVL508:
	.loc 1 1191 0
	str	wzr, [x20,1712]
	.loc 1 1190 0
	str	x0, [x20,1704]
	.loc 1 1192 0
	mov	w1, 0
	add	x0, x20, 1632
	mov	x2, 0
	mov	x3, 0
	bl	init_timer_key
.LVL509:
	.loc 1 1193 0
	str	x20, [x20,1664]
.LBB1818:
.LBB1814:
	.loc 1 1140 0
	add	x0, x19, :lo12:.LANCHOR1
.LBE1814:
.LBE1818:
	.loc 1 1194 0
	adrp	x1, hisi_blk_mq_sync_burst_check_timer_expire
.LBB1819:
.LBB1815:
	.loc 1 1140 0
	add	x3, x0, 48
.LBE1815:
.LBE1819:
	.loc 1 1194 0
	add	x1, x1, :lo12:hisi_blk_mq_sync_burst_check_timer_expire
.LBB1820:
.LBB1821:
.LBB1822:
	.loc 3 246 0
	str	wzr, [x20,1624]
.LBE1822:
.LBE1821:
.LBE1820:
.LBB1823:
.LBB1816:
	.loc 1 1162 0
	ldr	x2, [x0,48]
	mov	x0, x20
.LBE1816:
.LBE1823:
	.loc 1 1194 0
	str	x1, [x20,1656]
.LBB1824:
.LBB1817:
	.loc 1 1140 0
	str	x3, [x20,648]
	.loc 1 1141 0
	str	wzr, [x20,640]
	.loc 1 1162 0
	blr	x2
.LVL510:
.LBE1817:
.LBE1824:
	.loc 1 1197 0
	ldr	x0, [x21,8]
	cbz	x0, .L351
.L347:
	.loc 1 1199 0
	ldr	x0, [x26,#:lo12:.LANCHOR0]
	cbz	x0, .L352
.L348:
	.loc 1 1201 0
	add	x21, x26, :lo12:.LANCHOR0
	ldr	x0, [x21,16]
	cbz	x0, .L353
.L349:
.LBB1825:
.LBB1826:
	.loc 4 302 0
	add	x19, x19, :lo12:.LANCHOR1
.LBE1826:
.LBE1825:
	.loc 1 1208 0
	add	x26, x26, :lo12:.LANCHOR0
.LBB1828:
.LBB1827:
	.loc 4 302 0
	add	x21, x19, 8
	mov	x0, x21
	bl	_raw_spin_lock
.LVL511:
.LBE1827:
.LBE1828:
.LBB1829:
.LBB1830:
	.loc 2 77 0
	ldr	x2, [x19,40]
.LBE1830:
.LBE1829:
	.loc 1 1206 0
	add	x1, x20, 2704
.LBB1837:
.LBB1835:
.LBB1831:
.LBB1832:
	.loc 2 44 0
	str	x2, [x20,2712]
	.loc 2 43 0
	add	x0, x19, 32
	.loc 2 42 0
	str	x1, [x19,40]
	.loc 2 43 0
	str	x0, [x20,2704]
.LBE1832:
.LBE1831:
.LBE1835:
.LBE1837:
.LBB1838:
.LBB1839:
	.loc 4 347 0
	mov	x0, x21
.LBE1839:
.LBE1838:
.LBB1841:
.LBB1836:
.LBB1834:
.LBB1833:
	.loc 2 45 0
	str	x1, [x2]
.LBE1833:
.LBE1834:
.LBE1836:
.LBE1841:
.LBB1842:
.LBB1840:
	.loc 4 347 0
	bl	_raw_spin_unlock
.LVL512:
.LBE1840:
.LBE1842:
.LBB1843:
.LBB1844:
	.loc 8 489 0
	ldr	x1, [x26,16]
	add	x2, x26, 24
	mov	x3, 500
	mov	w0, 8
	bl	queue_delayed_work_on
.LVL513:
.LBE1844:
.LBE1843:
	.loc 1 1209 0
	ldr	x27, [sp,80]
	.cfi_remember_state
	.cfi_restore 27
	ldp	x19, x20, [sp,16]
	.cfi_restore 20
	.cfi_restore 19
.LVL514:
	ldp	x21, x22, [sp,32]
	.cfi_restore 22
	.cfi_restore 21
	ldp	x23, x24, [sp,48]
	.cfi_restore 24
	.cfi_restore 23
	ldp	x25, x26, [sp,64]
	.cfi_restore 26
	.cfi_restore 25
	ldp	x29, x30, [sp], 96
	.cfi_restore 30
	.cfi_restore 29
	.cfi_def_cfa 31, 0
	ret
.LVL515:
.L353:
	.cfi_restore_state
	.loc 1 1202 0
	adrp	x0, .LC4
	mov	w1, 6
	mov	w2, 0
	mov	x3, 0
	mov	x4, 0
	add	x0, x0, :lo12:.LC4
	.loc 1 1203 0
	add	x22, x21, 24
	add	x27, x27, :lo12:delayed_work_timer_fn
	.loc 1 1202 0
	bl	__alloc_workqueue_key
.LVL516:
	str	x0, [x21,16]
.LBB1845:
.LBB1846:
	.loc 2 27 0
	add	x4, x21, 32
	str	x4, [x21,32]
	.loc 2 28 0
	str	x4, [x21,40]
.LBE1846:
.LBE1845:
	.loc 1 1203 0
	adrp	x4, hisi_blk_mq_io_guard_work_fn
	mov	x5, 68719476704
	add	x4, x4, :lo12:hisi_blk_mq_io_guard_work_fn
	.loc 1 1203 0 is_stmt 0 discriminator 2
	mov	w1, 2097152
	add	x0, x21, 56
	mov	x2, 0
	mov	x3, 0
	.loc 1 1203 0
	str	x5, [x21,24]
	str	x4, [x21,48]
	.loc 1 1203 0 discriminator 2
	bl	init_timer_key
.LVL517:
	.loc 1 1203 0
	str	x22, [x22,64]
	str	x27, [x22,56]
	b	.L349
.L351:
	.loc 1 1198 0 is_stmt 1
	adrp	x0, .LC2
	mov	w1, 16
	add	x0, x0, :lo12:.LC2
	mov	w2, 0
	mov	x3, 0
	mov	x4, 0
	bl	__alloc_workqueue_key
.LVL518:
	str	x0, [x21,8]
	b	.L347
.L352:
	.loc 1 1200 0
	adrp	x0, .LC3
	mov	w1, 2
	add	x0, x0, :lo12:.LC3
	mov	w2, 0
	mov	x3, 0
	mov	x4, 0
	bl	__alloc_workqueue_key
.LVL519:
	adrp	x1, .LANCHOR0
	str	x0, [x1,#:lo12:.LANCHOR0]
	b	.L348
	.cfi_endproc
.LFE2962:
	.size	hisi_blk_mq_dispatch_strategy_init, .-hisi_blk_mq_dispatch_strategy_init
	.align	2
	.global	hisi_blk_mq_dispatch_strategy_deinit
	.type	hisi_blk_mq_dispatch_strategy_deinit, %function
hisi_blk_mq_dispatch_strategy_deinit:
.LFB2963:
	.loc 1 1212 0
	.cfi_startproc
.LVL520:
	stp	x29, x30, [sp, -32]!
	.cfi_def_cfa_offset 32
	.cfi_offset 29, -32
	.cfi_offset 30, -24
	add	x29, sp, 0
	.cfi_def_cfa_register 29
	stp	x19, x20, [sp,16]
	.cfi_offset 19, -16
	.cfi_offset 20, -8
.LBB1847:
.LBB1848:
	.loc 4 302 0
	adrp	x19, .LANCHOR1
.LBE1848:
.LBE1847:
	.loc 1 1212 0
	mov	x20, x0
.LBB1850:
.LBB1849:
	.loc 4 302 0
	add	x19, x19, :lo12:.LANCHOR1
	add	x19, x19, 8
	mov	x0, x19
.LVL521:
	bl	_raw_spin_lock
.LVL522:
.LBE1849:
.LBE1850:
.LBB1851:
.LBB1852:
.LBB1853:
	.loc 2 102 0
	ldr	x3, [x20,2704]
.LBE1853:
.LBE1852:
.LBE1851:
	.loc 1 1214 0
	add	x1, x20, 2704
.LBB1865:
.LBB1861:
.LBB1859:
	.loc 2 102 0
	ldr	x2, [x20,2712]
.LBE1859:
.LBE1861:
.LBE1865:
.LBB1866:
.LBB1867:
	.loc 4 347 0
	mov	x0, x19
.LBE1867:
.LBE1866:
.LBB1869:
.LBB1862:
.LBB1860:
.LBB1854:
.LBB1855:
	.loc 2 89 0
	str	x2, [x3,8]
.LBB1856:
.LBB1857:
.LBB1858:
	.loc 3 247 0
	str	x3, [x2]
.LBE1858:
.LBE1857:
.LBE1856:
.LBE1855:
.LBE1854:
.LBE1860:
.LBE1862:
.LBB1863:
.LBB1864:
	.loc 2 27 0
	str	x1, [x20,2704]
	.loc 2 28 0
	str	x1, [x1,8]
.LBE1864:
.LBE1863:
.LBE1869:
.LBB1870:
.LBB1868:
	.loc 4 347 0
	bl	_raw_spin_unlock
.LVL523:
.LBE1868:
.LBE1870:
	.loc 1 1216 0
	ldp	x19, x20, [sp,16]
	.cfi_restore 20
	.cfi_restore 19
.LVL524:
	ldp	x29, x30, [sp], 32
	.cfi_restore 30
	.cfi_restore 29
	.cfi_def_cfa 31, 0
	ret
	.cfi_endproc
.LFE2963:
	.size	hisi_blk_mq_dispatch_strategy_deinit, .-hisi_blk_mq_dispatch_strategy_deinit
	.global	hisi_mq_sync_long_burst_duration_ms
	.data
	.align	3
.LANCHOR1 = . + 0
	.type	hisi_mq_sync_long_burst_duration_ms, %object
	.size	hisi_mq_sync_long_burst_duration_ms, 4
hisi_mq_sync_long_burst_duration_ms:
	.word	5000
	.zero	4
	.type	hisi_io_guard_request_queue_list_lock, %object
	.size	hisi_io_guard_request_queue_list_lock, 24
hisi_io_guard_request_queue_list_lock:
	.hword	0
	.hword	0
	.word	-559067475
	.word	-1
	.zero	4
	.xword	-1
	.type	hisi_io_guard_request_queue_list, %object
	.size	hisi_io_guard_request_queue_list, 16
hisi_io_guard_request_queue_list:
	.xword	hisi_io_guard_request_queue_list
	.xword	hisi_io_guard_request_queue_list
	.type	hisi_mq_async_fifo_sched, %object
	.size	hisi_mq_async_fifo_sched, 48
hisi_mq_async_fifo_sched:
	.xword	hisi_blk_mq_async_sched_fifo_init
	.xword	hisi_blk_mq_async_sched_fifo_insert
	.xword	hisi_blk_mq_async_sched_fifo_seek
	.xword	hisi_blk_mq_async_sched_fifo_requeue
	.xword	hisi_blk_mq_async_sched_fifo_attempt_merge_bio
	.xword	hisi_blk_mq_async_sched_fifo_is_empty
	.section	.rodata.str1.8,"aMS",%progbits,1
	.align	3
.LC0:
	.string	"&(&q->sync_dispatch_list_lock)->rlock"
	.zero	2
.LC1:
	.string	"&(&q->async_dispatch_io_lock)->rlock"
	.zero	3
.LC2:
	.string	"sync_io_dispatch"
	.zero	7
.LC3:
	.string	"async_io_dispatch"
	.zero	6
.LC4:
	.string	"io_guard"
	.bss
	.align	3
.LANCHOR0 = . + 0
	.type	hisi_blk_mq_async_dispatch_workqueue, %object
	.size	hisi_blk_mq_async_dispatch_workqueue, 8
hisi_blk_mq_async_dispatch_workqueue:
	.zero	8
	.type	hisi_blk_mq_sync_dispatch_workqueue, %object
	.size	hisi_blk_mq_sync_dispatch_workqueue, 8
hisi_blk_mq_sync_dispatch_workqueue:
	.zero	8
	.type	hisi_blk_io_guard_workqueue, %object
	.size	hisi_blk_io_guard_workqueue, 8
hisi_blk_io_guard_workqueue:
	.zero	8
	.type	hisi_io_guard_work, %object
	.size	hisi_io_guard_work, 96
hisi_io_guard_work:
	.zero	96
	.type	__key.36639, %object
	.size	__key.36639, 0
__key.36639:
	.type	__key.36640, %object
	.size	__key.36640, 0
__key.36640:
	.text
.Letext0:
	.file 17 "/mnt/disk/jslave/ci/workspace/BKL_L04_B100_chipset/opensource/component_code/vendor/huawei/extra/build/build_script/kirin_kernel_release/kernel/include/uapi/asm-generic/int-ll64.h"
	.file 18 "/mnt/disk/jslave/ci/workspace/BKL_L04_B100_chipset/opensource/component_code/vendor/huawei/extra/build/build_script/kirin_kernel_release/kernel/include/asm-generic/int-ll64.h"
	.file 19 "/mnt/disk/jslave/ci/workspace/BKL_L04_B100_chipset/opensource/component_code/vendor/huawei/extra/build/build_script/kirin_kernel_release/kernel/include/uapi/asm-generic/posix_types.h"
	.file 20 "/mnt/disk/jslave/ci/workspace/BKL_L04_B100_chipset/opensource/component_code/vendor/huawei/extra/build/build_script/kirin_kernel_release/kernel/include/linux/types.h"
	.file 21 "/mnt/disk/jslave/ci/workspace/BKL_L04_B100_chipset/opensource/component_code/vendor/huawei/extra/build/build_script/kirin_kernel_release/kernel/include/linux/thread_info.h"
	.file 22 "/mnt/disk/jslave/ci/workspace/BKL_L04_B100_chipset/opensource/component_code/vendor/huawei/extra/build/build_script/kirin_kernel_release/kernel/include/uapi/linux/time.h"
	.file 23 "/mnt/disk/jslave/ci/workspace/BKL_L04_B100_chipset/opensource/component_code/vendor/huawei/extra/build/build_script/kirin_kernel_release/kernel/arch/arm64/include/asm/compat.h"
	.file 24 "/mnt/disk/jslave/ci/workspace/BKL_L04_B100_chipset/opensource/component_code/vendor/huawei/extra/build/build_script/kirin_kernel_release/kernel/include/uapi/asm-generic/poll.h"
	.file 25 "/mnt/disk/jslave/ci/workspace/BKL_L04_B100_chipset/opensource/component_code/vendor/huawei/extra/build/build_script/kirin_kernel_release/kernel/include/linux/sched.h"
	.file 26 "/mnt/disk/jslave/ci/workspace/BKL_L04_B100_chipset/opensource/component_code/vendor/huawei/extra/build/build_script/kirin_kernel_release/kernel/arch/arm64/include/uapi/asm/ptrace.h"
	.file 27 "/mnt/disk/jslave/ci/workspace/BKL_L04_B100_chipset/opensource/component_code/vendor/huawei/extra/build/build_script/kirin_kernel_release/kernel/arch/arm64/include/asm/spinlock_types.h"
	.file 28 "/mnt/disk/jslave/ci/workspace/BKL_L04_B100_chipset/opensource/component_code/vendor/huawei/extra/build/build_script/kirin_kernel_release/kernel/include/linux/spinlock_types.h"
	.file 29 "/mnt/disk/jslave/ci/workspace/BKL_L04_B100_chipset/opensource/component_code/vendor/huawei/extra/build/build_script/kirin_kernel_release/kernel/include/linux/rwlock_types.h"
	.file 30 "/mnt/disk/jslave/ci/workspace/BKL_L04_B100_chipset/opensource/component_code/vendor/huawei/extra/build/build_script/kirin_kernel_release/kernel/arch/arm64/include/asm/fpsimd.h"
	.file 31 "/mnt/disk/jslave/ci/workspace/BKL_L04_B100_chipset/opensource/component_code/vendor/huawei/extra/build/build_script/kirin_kernel_release/kernel/arch/arm64/include/asm/processor.h"
	.file 32 "/mnt/disk/jslave/ci/workspace/BKL_L04_B100_chipset/opensource/component_code/vendor/huawei/extra/build/build_script/kirin_kernel_release/kernel/include/asm-generic/atomic-long.h"
	.file 33 "/mnt/disk/jslave/ci/workspace/BKL_L04_B100_chipset/opensource/component_code/vendor/huawei/extra/build/build_script/kirin_kernel_release/kernel/include/linux/wait.h"
	.file 34 "/mnt/disk/jslave/ci/workspace/BKL_L04_B100_chipset/opensource/component_code/vendor/huawei/extra/build/build_script/kirin_kernel_release/kernel/include/linux/seqlock.h"
	.file 35 "/mnt/disk/jslave/ci/workspace/BKL_L04_B100_chipset/opensource/component_code/vendor/huawei/extra/build/build_script/kirin_kernel_release/kernel/include/linux/nodemask.h"
	.file 36 "/mnt/disk/jslave/ci/workspace/BKL_L04_B100_chipset/opensource/component_code/vendor/huawei/extra/build/build_script/kirin_kernel_release/kernel/include/linux/cpumask.h"
	.file 37 "/mnt/disk/jslave/ci/workspace/BKL_L04_B100_chipset/opensource/component_code/vendor/huawei/extra/build/build_script/kirin_kernel_release/kernel/include/linux/completion.h"
	.file 38 "/mnt/disk/jslave/ci/workspace/BKL_L04_B100_chipset/opensource/component_code/vendor/huawei/extra/build/build_script/kirin_kernel_release/kernel/include/linux/rbtree.h"
	.file 39 "/mnt/disk/jslave/ci/workspace/BKL_L04_B100_chipset/opensource/component_code/vendor/huawei/extra/build/build_script/kirin_kernel_release/kernel/include/linux/osq_lock.h"
	.file 40 "/mnt/disk/jslave/ci/workspace/BKL_L04_B100_chipset/opensource/component_code/vendor/huawei/extra/build/build_script/kirin_kernel_release/kernel/include/linux/rwsem.h"
	.file 41 "/mnt/disk/jslave/ci/workspace/BKL_L04_B100_chipset/opensource/component_code/vendor/huawei/extra/build/build_script/kirin_kernel_release/kernel/include/linux/mm_types.h"
	.file 42 "/mnt/disk/jslave/ci/workspace/BKL_L04_B100_chipset/opensource/component_code/vendor/huawei/extra/build/build_script/kirin_kernel_release/kernel/include/linux/lockdep.h"
	.file 43 "/mnt/disk/jslave/ci/workspace/BKL_L04_B100_chipset/opensource/component_code/vendor/huawei/extra/build/build_script/kirin_kernel_release/kernel/include/linux/uprobes.h"
	.file 44 "/mnt/disk/jslave/ci/workspace/BKL_L04_B100_chipset/opensource/component_code/vendor/huawei/extra/build/build_script/kirin_kernel_release/kernel/include/linux/timer.h"
	.file 45 "/mnt/disk/jslave/ci/workspace/BKL_L04_B100_chipset/opensource/component_code/vendor/huawei/extra/build/build_script/kirin_kernel_release/kernel/include/linux/stddef.h"
	.file 46 "/mnt/disk/jslave/ci/workspace/BKL_L04_B100_chipset/opensource/component_code/vendor/huawei/extra/build/build_script/kirin_kernel_release/kernel/arch/arm64/include/asm/pgtable-types.h"
	.file 47 "/mnt/disk/jslave/ci/workspace/BKL_L04_B100_chipset/opensource/component_code/vendor/huawei/extra/build/build_script/kirin_kernel_release/kernel/arch/arm64/include/asm/mmu.h"
	.file 48 "/mnt/disk/jslave/ci/workspace/BKL_L04_B100_chipset/opensource/component_code/vendor/huawei/extra/build/build_script/kirin_kernel_release/kernel/include/linux/fs.h"
	.file 49 "/mnt/disk/jslave/ci/workspace/BKL_L04_B100_chipset/opensource/component_code/vendor/huawei/extra/build/build_script/kirin_kernel_release/kernel/include/linux/rmap.h"
	.file 50 "/mnt/disk/jslave/ci/workspace/BKL_L04_B100_chipset/opensource/component_code/vendor/huawei/extra/build/build_script/kirin_kernel_release/kernel/include/linux/mm.h"
	.file 51 "/mnt/disk/jslave/ci/workspace/BKL_L04_B100_chipset/opensource/component_code/vendor/huawei/extra/build/build_script/kirin_kernel_release/kernel/include/linux/mmzone.h"
	.file 52 "/mnt/disk/jslave/ci/workspace/BKL_L04_B100_chipset/opensource/component_code/vendor/huawei/extra/build/build_script/kirin_kernel_release/kernel/include/linux/mutex.h"
	.file 53 "/mnt/disk/jslave/ci/workspace/BKL_L04_B100_chipset/opensource/component_code/vendor/huawei/extra/build/build_script/kirin_kernel_release/kernel/include/linux/notifier.h"
	.file 54 "/mnt/disk/jslave/ci/workspace/BKL_L04_B100_chipset/opensource/component_code/vendor/huawei/extra/build/build_script/kirin_kernel_release/kernel/include/linux/llist.h"
	.file 55 "/mnt/disk/jslave/ci/workspace/BKL_L04_B100_chipset/opensource/component_code/vendor/huawei/extra/build/build_script/kirin_kernel_release/kernel/include/linux/smp.h"
	.file 56 "/mnt/disk/jslave/ci/workspace/BKL_L04_B100_chipset/opensource/component_code/vendor/huawei/extra/build/build_script/kirin_kernel_release/kernel/arch/arm64/include/asm/smp.h"
	.file 57 "/mnt/disk/jslave/ci/workspace/BKL_L04_B100_chipset/opensource/component_code/vendor/huawei/extra/build/build_script/kirin_kernel_release/kernel/include/linux/shrinker.h"
	.file 58 "/mnt/disk/jslave/ci/workspace/BKL_L04_B100_chipset/opensource/component_code/vendor/huawei/extra/build/build_script/kirin_kernel_release/kernel/include/uapi/linux/resource.h"
	.file 59 "/mnt/disk/jslave/ci/workspace/BKL_L04_B100_chipset/opensource/component_code/vendor/huawei/extra/build/build_script/kirin_kernel_release/kernel/include/linux/vmstat.h"
	.file 60 "/mnt/disk/jslave/ci/workspace/BKL_L04_B100_chipset/opensource/component_code/vendor/huawei/extra/build/build_script/kirin_kernel_release/kernel/include/linux/capability.h"
	.file 61 "/mnt/disk/jslave/ci/workspace/BKL_L04_B100_chipset/opensource/component_code/vendor/huawei/extra/build/build_script/kirin_kernel_release/kernel/include/linux/plist.h"
	.file 62 "/mnt/disk/jslave/ci/workspace/BKL_L04_B100_chipset/opensource/component_code/vendor/huawei/extra/build/build_script/kirin_kernel_release/kernel/include/asm-generic/cputime_jiffies.h"
	.file 63 "/mnt/disk/jslave/ci/workspace/BKL_L04_B100_chipset/opensource/component_code/vendor/huawei/extra/build/build_script/kirin_kernel_release/kernel/include/linux/uidgid.h"
	.file 64 "/mnt/disk/jslave/ci/workspace/BKL_L04_B100_chipset/opensource/component_code/vendor/huawei/extra/build/build_script/kirin_kernel_release/kernel/include/uapi/asm-generic/signal.h"
	.file 65 "/mnt/disk/jslave/ci/workspace/BKL_L04_B100_chipset/opensource/component_code/vendor/huawei/extra/build/build_script/kirin_kernel_release/kernel/include/uapi/asm-generic/signal-defs.h"
	.file 66 "/mnt/disk/jslave/ci/workspace/BKL_L04_B100_chipset/opensource/component_code/vendor/huawei/extra/build/build_script/kirin_kernel_release/kernel/include/uapi/asm-generic/siginfo.h"
	.file 67 "/mnt/disk/jslave/ci/workspace/BKL_L04_B100_chipset/opensource/component_code/vendor/huawei/extra/build/build_script/kirin_kernel_release/kernel/include/linux/signal.h"
	.file 68 "/mnt/disk/jslave/ci/workspace/BKL_L04_B100_chipset/opensource/component_code/vendor/huawei/extra/build/build_script/kirin_kernel_release/kernel/include/linux/pid.h"
	.file 69 "/mnt/disk/jslave/ci/workspace/BKL_L04_B100_chipset/opensource/component_code/vendor/huawei/extra/build/build_script/kirin_kernel_release/kernel/include/linux/percpu_counter.h"
	.file 70 "/mnt/disk/jslave/ci/workspace/BKL_L04_B100_chipset/opensource/component_code/vendor/huawei/extra/build/build_script/kirin_kernel_release/kernel/include/linux/seccomp.h"
	.file 71 "/mnt/disk/jslave/ci/workspace/BKL_L04_B100_chipset/opensource/component_code/vendor/huawei/extra/build/build_script/kirin_kernel_release/kernel/include/linux/timerqueue.h"
	.file 72 "/mnt/disk/jslave/ci/workspace/BKL_L04_B100_chipset/opensource/component_code/vendor/huawei/extra/build/build_script/kirin_kernel_release/kernel/include/linux/hrtimer.h"
	.file 73 "/mnt/disk/jslave/ci/workspace/BKL_L04_B100_chipset/opensource/component_code/vendor/huawei/extra/build/build_script/kirin_kernel_release/kernel/include/linux/task_io_accounting.h"
	.file 74 "/mnt/disk/jslave/ci/workspace/BKL_L04_B100_chipset/opensource/component_code/vendor/huawei/extra/build/build_script/kirin_kernel_release/kernel/include/linux/assoc_array.h"
	.file 75 "/mnt/disk/jslave/ci/workspace/BKL_L04_B100_chipset/opensource/component_code/vendor/huawei/extra/build/build_script/kirin_kernel_release/kernel/include/linux/key.h"
	.file 76 "/mnt/disk/jslave/ci/workspace/BKL_L04_B100_chipset/opensource/component_code/vendor/huawei/extra/build/build_script/kirin_kernel_release/kernel/include/linux/cred.h"
	.file 77 "/mnt/disk/jslave/ci/workspace/BKL_L04_B100_chipset/opensource/component_code/vendor/huawei/extra/build/build_script/kirin_kernel_release/kernel/include/linux/idr.h"
	.file 78 "/mnt/disk/jslave/ci/workspace/BKL_L04_B100_chipset/opensource/component_code/vendor/huawei/extra/build/build_script/kirin_kernel_release/kernel/include/linux/percpu-refcount.h"
	.file 79 "/mnt/disk/jslave/ci/workspace/BKL_L04_B100_chipset/opensource/component_code/vendor/huawei/extra/build/build_script/kirin_kernel_release/kernel/include/linux/rcu_sync.h"
	.file 80 "/mnt/disk/jslave/ci/workspace/BKL_L04_B100_chipset/opensource/component_code/vendor/huawei/extra/build/build_script/kirin_kernel_release/kernel/include/linux/percpu-rwsem.h"
	.file 81 "/mnt/disk/jslave/ci/workspace/BKL_L04_B100_chipset/opensource/component_code/vendor/huawei/extra/build/build_script/kirin_kernel_release/kernel/include/linux/cgroup-defs.h"
	.file 82 "/mnt/disk/jslave/ci/workspace/BKL_L04_B100_chipset/opensource/component_code/vendor/huawei/extra/build/build_script/kirin_kernel_release/kernel/include/linux/kernfs.h"
	.file 83 "/mnt/disk/jslave/ci/workspace/BKL_L04_B100_chipset/opensource/component_code/vendor/huawei/extra/build/build_script/kirin_kernel_release/kernel/include/linux/seq_file.h"
	.file 84 "/mnt/disk/jslave/ci/workspace/BKL_L04_B100_chipset/opensource/component_code/vendor/huawei/extra/build/build_script/kirin_kernel_release/kernel/include/uapi/linux/taskstats.h"
	.file 85 "/mnt/disk/jslave/ci/workspace/BKL_L04_B100_chipset/opensource/component_code/vendor/huawei/extra/build/build_script/kirin_kernel_release/kernel/include/linux/bio.h"
	.file 86 "/mnt/disk/jslave/ci/workspace/BKL_L04_B100_chipset/opensource/component_code/vendor/huawei/extra/build/build_script/kirin_kernel_release/kernel/include/linux/swap.h"
	.file 87 "/mnt/disk/jslave/ci/workspace/BKL_L04_B100_chipset/opensource/component_code/vendor/huawei/extra/build/build_script/kirin_kernel_release/kernel/include/linux/backing-dev-defs.h"
	.file 88 "/mnt/disk/jslave/ci/workspace/BKL_L04_B100_chipset/opensource/component_code/vendor/huawei/extra/build/build_script/kirin_kernel_release/kernel/include/linux/iocontext.h"
	.file 89 "/mnt/disk/jslave/ci/workspace/BKL_L04_B100_chipset/opensource/component_code/vendor/huawei/extra/build/build_script/kirin_kernel_release/kernel/include/linux/compat.h"
	.file 90 "/mnt/disk/jslave/ci/workspace/BKL_L04_B100_chipset/opensource/component_code/vendor/huawei/extra/build/build_script/kirin_kernel_release/kernel/include/linux/list_bl.h"
	.file 91 "/mnt/disk/jslave/ci/workspace/BKL_L04_B100_chipset/opensource/component_code/vendor/huawei/extra/build/build_script/kirin_kernel_release/kernel/include/linux/lockref.h"
	.file 92 "/mnt/disk/jslave/ci/workspace/BKL_L04_B100_chipset/opensource/component_code/vendor/huawei/extra/build/build_script/kirin_kernel_release/kernel/include/linux/dcache.h"
	.file 93 "/mnt/disk/jslave/ci/workspace/BKL_L04_B100_chipset/opensource/component_code/vendor/huawei/extra/build/build_script/kirin_kernel_release/kernel/include/linux/path.h"
	.file 94 "/mnt/disk/jslave/ci/workspace/BKL_L04_B100_chipset/opensource/component_code/vendor/huawei/extra/build/build_script/kirin_kernel_release/kernel/include/linux/stat.h"
	.file 95 "/mnt/disk/jslave/ci/workspace/BKL_L04_B100_chipset/opensource/component_code/vendor/huawei/extra/build/build_script/kirin_kernel_release/kernel/include/linux/list_lru.h"
	.file 96 "/mnt/disk/jslave/ci/workspace/BKL_L04_B100_chipset/opensource/component_code/vendor/huawei/extra/build/build_script/kirin_kernel_release/kernel/include/linux/radix-tree.h"
	.file 97 "/mnt/disk/jslave/ci/workspace/BKL_L04_B100_chipset/opensource/component_code/vendor/huawei/extra/build/build_script/kirin_kernel_release/kernel/include/uapi/linux/fiemap.h"
	.file 98 "/mnt/disk/jslave/ci/workspace/BKL_L04_B100_chipset/opensource/component_code/vendor/huawei/extra/build/build_script/kirin_kernel_release/kernel/include/linux/migrate_mode.h"
	.file 99 "/mnt/disk/jslave/ci/workspace/BKL_L04_B100_chipset/opensource/component_code/vendor/huawei/extra/build/build_script/kirin_kernel_release/kernel/include/linux/quota.h"
	.file 100 "/mnt/disk/jslave/ci/workspace/BKL_L04_B100_chipset/opensource/component_code/vendor/huawei/extra/build/build_script/kirin_kernel_release/kernel/include/linux/projid.h"
	.file 101 "/mnt/disk/jslave/ci/workspace/BKL_L04_B100_chipset/opensource/component_code/vendor/huawei/extra/build/build_script/kirin_kernel_release/kernel/include/linux/writeback.h"
	.file 102 "/mnt/disk/jslave/ci/workspace/BKL_L04_B100_chipset/opensource/component_code/vendor/huawei/extra/build/build_script/kirin_kernel_release/kernel/include/linux/uio.h"
	.file 103 "/mnt/disk/jslave/ci/workspace/BKL_L04_B100_chipset/opensource/component_code/vendor/huawei/extra/build/build_script/kirin_kernel_release/kernel/include/linux/genhd.h"
	.file 104 "/mnt/disk/jslave/ci/workspace/BKL_L04_B100_chipset/opensource/component_code/vendor/huawei/extra/build/build_script/kirin_kernel_release/kernel/include/linux/nfs_fs_i.h"
	.file 105 "/mnt/disk/jslave/ci/workspace/BKL_L04_B100_chipset/opensource/component_code/vendor/huawei/extra/build/build_script/kirin_kernel_release/kernel/include/linux/poll.h"
	.file 106 "/mnt/disk/jslave/ci/workspace/BKL_L04_B100_chipset/opensource/component_code/vendor/huawei/extra/build/build_script/kirin_kernel_release/kernel/include/linux/jump_label.h"
	.file 107 "/mnt/disk/jslave/ci/workspace/BKL_L04_B100_chipset/opensource/component_code/vendor/huawei/extra/build/build_script/kirin_kernel_release/kernel/include/linux/flex_proportions.h"
	.file 108 "/mnt/disk/jslave/ci/workspace/BKL_L04_B100_chipset/opensource/component_code/vendor/huawei/extra/build/build_script/kirin_kernel_release/kernel/include/linux/kref.h"
	.file 109 "/mnt/disk/jslave/ci/workspace/BKL_L04_B100_chipset/opensource/component_code/vendor/huawei/extra/build/build_script/kirin_kernel_release/kernel/include/linux/device.h"
	.file 110 "/mnt/disk/jslave/ci/workspace/BKL_L04_B100_chipset/opensource/component_code/vendor/huawei/extra/build/build_script/kirin_kernel_release/kernel/include/linux/kobject_ns.h"
	.file 111 "/mnt/disk/jslave/ci/workspace/BKL_L04_B100_chipset/opensource/component_code/vendor/huawei/extra/build/build_script/kirin_kernel_release/kernel/include/linux/sysfs.h"
	.file 112 "/mnt/disk/jslave/ci/workspace/BKL_L04_B100_chipset/opensource/component_code/vendor/huawei/extra/build/build_script/kirin_kernel_release/kernel/include/linux/kobject.h"
	.file 113 "/mnt/disk/jslave/ci/workspace/BKL_L04_B100_chipset/opensource/component_code/vendor/huawei/extra/build/build_script/kirin_kernel_release/kernel/include/linux/klist.h"
	.file 114 "/mnt/disk/jslave/ci/workspace/BKL_L04_B100_chipset/opensource/component_code/vendor/huawei/extra/build/build_script/kirin_kernel_release/kernel/include/linux/pinctrl/devinfo.h"
	.file 115 "/mnt/disk/jslave/ci/workspace/BKL_L04_B100_chipset/opensource/component_code/vendor/huawei/extra/build/build_script/kirin_kernel_release/kernel/include/linux/pm.h"
	.file 116 "/mnt/disk/jslave/ci/workspace/BKL_L04_B100_chipset/opensource/component_code/vendor/huawei/extra/build/build_script/kirin_kernel_release/kernel/include/linux/pm_wakeup.h"
	.file 117 "/mnt/disk/jslave/ci/workspace/BKL_L04_B100_chipset/opensource/component_code/vendor/huawei/extra/build/build_script/kirin_kernel_release/kernel/arch/arm64/include/asm/device.h"
	.file 118 "/mnt/disk/jslave/ci/workspace/BKL_L04_B100_chipset/opensource/component_code/vendor/huawei/extra/build/build_script/kirin_kernel_release/kernel/include/linux/dma-mapping.h"
	.file 119 "/mnt/disk/jslave/ci/workspace/BKL_L04_B100_chipset/opensource/component_code/vendor/huawei/extra/build/build_script/kirin_kernel_release/kernel/include/linux/mempool.h"
	.file 120 "/mnt/disk/jslave/ci/workspace/BKL_L04_B100_chipset/opensource/component_code/vendor/huawei/extra/build/build_script/kirin_kernel_release/kernel/include/linux/bsg.h"
	.file 121 "/mnt/disk/jslave/ci/workspace/BKL_L04_B100_chipset/opensource/component_code/vendor/huawei/extra/build/build_script/kirin_kernel_release/kernel/include/linux/scatterlist.h"
	.file 122 "/mnt/disk/jslave/ci/workspace/BKL_L04_B100_chipset/opensource/component_code/vendor/huawei/extra/build/build_script/kirin_kernel_release/kernel/include/linux/elevator.h"
	.file 123 "/mnt/disk/jslave/ci/workspace/BKL_L04_B100_chipset/opensource/component_code/vendor/huawei/extra/build/build_script/kirin_kernel_release/kernel/include/linux/blk-mq.h"
	.file 124 "/mnt/disk/jslave/ci/workspace/BKL_L04_B100_chipset/opensource/component_code/vendor/huawei/extra/build/build_script/kirin_kernel_release/kernel/include/uapi/linux/uio.h"
	.file 125 "/mnt/disk/jslave/ci/workspace/BKL_L04_B100_chipset/opensource/component_code/vendor/huawei/extra/build/build_script/kirin_kernel_release/kernel/include/linux/tracepoint.h"
	.file 126 "/mnt/disk/jslave/ci/workspace/BKL_L04_B100_chipset/opensource/component_code/vendor/huawei/extra/build/build_script/kirin_kernel_release/kernel/include/linux/dma-attrs.h"
	.file 127 "/mnt/disk/jslave/ci/workspace/BKL_L04_B100_chipset/opensource/component_code/vendor/huawei/extra/build/build_script/kirin_kernel_release/kernel/include/linux/dma-direction.h"
	.file 128 "/mnt/disk/jslave/ci/workspace/BKL_L04_B100_chipset/opensource/component_code/vendor/huawei/extra/build/build_script/kirin_kernel_release/kernel/include/scsi/scsi_device.h"
	.file 129 "/mnt/disk/jslave/ci/workspace/BKL_L04_B100_chipset/opensource/component_code/vendor/huawei/extra/build/build_script/kirin_kernel_release/kernel/include/linux/jiffies.h"
	.file 130 "/mnt/disk/jslave/ci/workspace/BKL_L04_B100_chipset/opensource/component_code/vendor/huawei/extra/build/build_script/kirin_kernel_release/kernel/arch/arm64/include/asm/cachetype.h"
	.file 131 "/mnt/disk/jslave/ci/workspace/BKL_L04_B100_chipset/opensource/component_code/vendor/huawei/extra/build/build_script/kirin_kernel_release/kernel/include/linux/printk.h"
	.file 132 "/mnt/disk/jslave/ci/workspace/BKL_L04_B100_chipset/opensource/component_code/vendor/huawei/extra/build/build_script/kirin_kernel_release/kernel/include/linux/kernel.h"
	.file 133 "/mnt/disk/jslave/ci/workspace/BKL_L04_B100_chipset/opensource/component_code/vendor/huawei/extra/build/build_script/kirin_kernel_release/kernel/arch/arm64/include/asm/stack_pointer.h"
	.file 134 "/mnt/disk/jslave/ci/workspace/BKL_L04_B100_chipset/opensource/component_code/vendor/huawei/extra/build/build_script/kirin_kernel_release/kernel/include/chipset_common/kernel_harden/kaslr.h"
	.file 135 "/mnt/disk/jslave/ci/workspace/BKL_L04_B100_chipset/opensource/component_code/vendor/huawei/extra/build/build_script/kirin_kernel_release/kernel/arch/arm64/include/asm/hwcap.h"
	.file 136 "/mnt/disk/jslave/ci/workspace/BKL_L04_B100_chipset/opensource/component_code/vendor/huawei/extra/build/build_script/kirin_kernel_release/kernel/arch/arm64/include/asm/cpufeature.h"
	.file 137 "/mnt/disk/jslave/ci/workspace/BKL_L04_B100_chipset/opensource/component_code/vendor/huawei/extra/build/build_script/kirin_kernel_release/kernel/arch/arm64/include/asm/memory.h"
	.file 138 "/mnt/disk/jslave/ci/workspace/BKL_L04_B100_chipset/opensource/component_code/vendor/huawei/extra/build/build_script/kirin_kernel_release/kernel/include/asm-generic/percpu.h"
	.file 139 "/mnt/disk/jslave/ci/workspace/BKL_L04_B100_chipset/opensource/component_code/vendor/huawei/extra/build/build_script/kirin_kernel_release/kernel/include/linux/debug_locks.h"
	.file 140 "/mnt/disk/jslave/ci/workspace/BKL_L04_B100_chipset/opensource/component_code/vendor/huawei/extra/build/build_script/kirin_kernel_release/kernel/include/asm-generic/pgtable.h"
	.file 141 "/mnt/disk/jslave/ci/workspace/BKL_L04_B100_chipset/opensource/component_code/vendor/huawei/extra/build/build_script/kirin_kernel_release/kernel/include/linux/highuid.h"
	.file 142 "/mnt/disk/jslave/ci/workspace/BKL_L04_B100_chipset/opensource/component_code/vendor/huawei/extra/build/build_script/kirin_kernel_release/kernel/include/linux/cgroup.h"
	.file 143 "/mnt/disk/jslave/ci/workspace/BKL_L04_B100_chipset/opensource/component_code/vendor/huawei/extra/build/build_script/kirin_kernel_release/kernel/arch/arm64/include/asm/irq.h"
	.file 144 "/mnt/disk/jslave/ci/workspace/BKL_L04_B100_chipset/opensource/component_code/vendor/huawei/extra/build/build_script/kirin_kernel_release/kernel/arch/arm64/include/asm/hardirq.h"
	.file 145 "/mnt/disk/jslave/ci/workspace/BKL_L04_B100_chipset/opensource/component_code/vendor/huawei/extra/build/build_script/kirin_kernel_release/kernel/include/linux/slab.h"
	.file 146 "/mnt/disk/jslave/ci/workspace/BKL_L04_B100_chipset/opensource/component_code/vendor/huawei/extra/build/build_script/kirin_kernel_release/kernel/include/linux/hisi/hisi_hkip.h"
	.file 147 "/mnt/disk/jslave/ci/workspace/BKL_L04_B100_chipset/opensource/component_code/vendor/huawei/extra/build/build_script/kirin_kernel_release/kernel/include/trace/events/block.h"
	.file 148 "/mnt/disk/jslave/ci/workspace/BKL_L04_B100_chipset/opensource/component_code/vendor/huawei/extra/build/build_script/kirin_kernel_release/kernel/arch/arm64/include/../../arm/include/asm/xen/hypervisor.h"
	.file 149 "/mnt/disk/jslave/ci/workspace/BKL_L04_B100_chipset/opensource/component_code/vendor/huawei/extra/build/build_script/kirin_kernel_release/kernel/arch/arm64/include/asm/dma-mapping.h"
	.file 150 "/mnt/disk/jslave/ci/workspace/BKL_L04_B100_chipset/opensource/component_code/vendor/huawei/extra/build/build_script/kirin_kernel_release/kernel/include/scsi/scsi_common.h"
	.file 151 "/mnt/disk/jslave/ci/workspace/BKL_L04_B100_chipset/opensource/component_code/vendor/huawei/extra/build/build_script/kirin_kernel_release/kernel/include/linux/spinlock_api_smp.h"
	.file 152 "/mnt/disk/jslave/ci/workspace/BKL_L04_B100_chipset/opensource/component_code/vendor/huawei/extra/build/build_script/kirin_kernel_release/kernel/include/linux/timekeeping.h"
	.file 153 "/mnt/disk/jslave/ci/workspace/BKL_L04_B100_chipset/opensource/component_code/vendor/huawei/extra/build/build_script/kirin_kernel_release/kernel/arch/arm64/include/asm/bitops.h"
	.section	.note.GNU-stack,"",%progbits
