	.cpu generic+fp+simd
	.file	"nf_hw_hook.c"
	.text
.Ltext0:
	.cfi_sections	.debug_frame
#APP
	.irp	num,0,1,2,3,4,5,6,7,8,9,10,11,12,13,14,15,16,17,18,19,20,21,22,23,24,25,26,27,28,29,30
	.equ	.L__reg_num_x\num, \num
	.endr
	.equ	.L__reg_num_xzr, 31

	.macro	mrs_s, rt, sreg
	.inst	0xd5200000|(\sreg)|(.L__reg_num_\rt)
	.endm

	.macro	msr_s, sreg, rt
	.inst	0xd5000000|(\sreg)|(.L__reg_num_\rt)
	.endm

#NO_APP
	.section	.exit.text,"ax",%progbits
	.align	2
	.type	nf_exit, %function
nf_exit:
.LFB3662:
	.file 1 "/mnt/disk/jslave/ci/workspace/BKL_L04_B100_chipset/opensource/component_code/vendor/huawei/extra/build/build_script/kirin_kernel_release/kernel/drivers/huawei_platform/net/hw_netfilter/nf_hw_hook.c"
	.loc 1 423 0
	.cfi_startproc
	stp	x29, x30, [sp, -16]!
	.cfi_def_cfa_offset 16
	.cfi_offset 29, -16
	.cfi_offset 30, -8
	add	x29, sp, 0
	.cfi_def_cfa_register 29
	.loc 1 424 0
	bl	uninit_ad
.LVL0:
	.loc 1 425 0
	bl	uninit_appdl
.LVL1:
	.loc 1 426 0
	adrp	x0, .LANCHOR0
	mov	w1, 1
	add	x0, x0, :lo12:.LANCHOR0
	bl	nf_unregister_hooks
.LVL2:
	.loc 1 427 0
	ldp	x29, x30, [sp], 16
	.cfi_restore 30
	.cfi_restore 29
	.cfi_def_cfa 31, 0
	ret
	.cfi_endproc
.LFE3662:
	.size	nf_exit, .-nf_exit
	.section	.init.text,"ax",%progbits
	.align	2
	.type	nf_init, %function
nf_init:
.LFB3661:
	.loc 1 406 0
	.cfi_startproc
	stp	x29, x30, [sp, -96]!
	.cfi_def_cfa_offset 96
	.cfi_offset 29, -96
	.cfi_offset 30, -88
	adrp	x0, __stack_chk_guard
	add	x29, sp, 0
	.cfi_def_cfa_register 29
	stp	x19, x20, [sp,16]
	.cfi_offset 19, -80
	.cfi_offset 20, -72
	mov	x20, x0
	.loc 1 406 0
	ldr	x0, [x0,#:lo12:__stack_chk_guard]
	str	x0, [x29,88]
	.loc 1 409 0
	bl	init_appdl
.LVL3:
	.loc 1 410 0
	bl	init_ad
.LVL4:
	.loc 1 411 0
	adrp	x0, .LANCHOR0
	mov	w1, 1
	add	x0, x0, :lo12:.LANCHOR0
	bl	nf_register_hooks
.LVL5:
	.loc 1 412 0
	cbz	w0, .L3
	.loc 1 413 0
	mov	w1, w0
	adrp	x0, .LC0
.LVL6:
	add	x0, x0, :lo12:.LC0
	bl	printk
.LVL7:
	.loc 1 414 0
	mov	w0, -1
	b	.L4
.LVL8:
.L3:
.LBB148:
.LBB149:
	.loc 1 191 0
	add	x4, x29, 40
.LBB150:
.LBB151:
	.file 2 "/mnt/disk/jslave/ci/workspace/BKL_L04_B100_chipset/opensource/component_code/vendor/huawei/extra/build/build_script/kirin_kernel_release/kernel/include/linux/netlink.h"
	.loc 2 62 0
	adrp	x0, init_net
.LVL9:
	mov	x3, x4
	mov	w1, 32
	add	x0, x0, :lo12:init_net
	mov	x2, 0
.LBE151:
.LBE150:
	.loc 1 191 0
	stp	xzr, xzr, [x4]
	stp	xzr, xzr, [x4,16]
	stp	xzr, xzr, [x4,32]
	adrp	x4, kernel_hw_receive
	add	x4, x4, :lo12:kernel_hw_receive
	str	x4, [x29,48]
.LBB153:
.LBB152:
	.loc 2 62 0
	bl	__netlink_kernel_create
.LVL10:
.LBE152:
.LBE153:
	.loc 1 194 0
	adrp	x1, .LANCHOR1
	mov	x19, x1
	str	x0, [x1,#:lo12:.LANCHOR1]
	.loc 1 195 0
	cbnz	x0, .L5
	.loc 1 196 0
	adrp	x0, .LC1
	add	x0, x0, :lo12:.LC1
	bl	printk
.LVL11:
.L5:
.LBE149:
.LBE148:
.LBB154:
	.loc 1 417 0 discriminator 1
	add	x2, x19, :lo12:.LANCHOR1
	adrp	x1, .LC2
	add	x0, x2, 8
	add	x1, x1, :lo12:.LC2
	add	x2, x2, 32
	bl	__raw_spin_lock_init
.LVL12:
.LBE154:
	.loc 1 418 0
	adrp	x0, .LC3
	add	x0, x0, :lo12:.LC3
	bl	printk
.LVL13:
	.loc 1 419 0
	mov	w0, 0
.L4:
	.loc 1 420 0
	ldr	x2, [x29,88]
	ldr	x1, [x20,#:lo12:__stack_chk_guard]
	cmp	x2, x1
	beq	.L6
	bl	__stack_chk_fail
.LVL14:
.L6:
	ldp	x19, x20, [sp,16]
	.cfi_restore 20
	.cfi_restore 19
	ldp	x29, x30, [sp], 96
	.cfi_restore 30
	.cfi_restore 29
	.cfi_def_cfa 31, 0
	ret
	.cfi_endproc
.LFE3661:
	.size	nf_init, .-nf_init
	.text
	.align	2
	.type	notify_event.constprop.7, %function
notify_event.constprop.7:
.LFB3670:
	.loc 1 149 0
	.cfi_startproc
.LVL15:
	stp	x29, x30, [sp, -80]!
	.cfi_def_cfa_offset 80
	.cfi_offset 29, -80
	.cfi_offset 30, -72
	add	x29, sp, 0
	.cfi_def_cfa_register 29
	stp	x23, x24, [sp,48]
	.cfi_offset 23, -32
	.cfi_offset 24, -24
	mov	w24, w0
	.loc 1 156 0
	mov	x0, x1
.LVL16:
	.loc 1 149 0
	stp	x25, x26, [sp,64]
	stp	x19, x20, [sp,16]
	stp	x21, x22, [sp,32]
	.cfi_offset 25, -16
	.cfi_offset 26, -8
	.cfi_offset 19, -64
	.cfi_offset 20, -56
	.cfi_offset 21, -48
	.cfi_offset 22, -40
	.loc 1 149 0
	mov	x25, x1
	.loc 1 156 0
	bl	strlen
.LVL17:
	mov	x23, x0
	.loc 1 158 0
	cbz	w24, .L9
	.loc 1 158 0 is_stmt 0 discriminator 1
	adrp	x21, .LANCHOR1
	add	x0, x21, :lo12:.LANCHOR1
	ldr	x1, [x21,#:lo12:.LANCHOR1]
	cbz	x1, .L9
	.loc 1 158 0 discriminator 2
	ldr	w0, [x0,32]
	cbz	w0, .L9
.LBB155:
.LBB156:
.LBB157:
.LBB158:
	.file 3 "/mnt/disk/jslave/ci/workspace/BKL_L04_B100_chipset/opensource/component_code/vendor/huawei/extra/build/build_script/kirin_kernel_release/kernel/include/net/netlink.h"
	.loc 3 276 0 is_stmt 1
	add	w19, w23, 28
.LBE158:
.LBE157:
.LBB160:
.LBB161:
	.file 4 "/mnt/disk/jslave/ci/workspace/BKL_L04_B100_chipset/opensource/component_code/vendor/huawei/extra/build/build_script/kirin_kernel_release/kernel/include/linux/skbuff.h"
	.loc 4 818 0
	mov	w1, 32
.LBE161:
.LBE160:
.LBB164:
.LBB159:
	.loc 3 276 0
	and	w19, w19, -4
.LBE159:
.LBE164:
.LBB165:
.LBB162:
	.loc 4 818 0
	movk	w1, 0x208, lsl 16
	mov	w0, w19
	mov	w2, 0
	mov	w3, -1
.LBE162:
.LBE165:
.LBE156:
.LBE155:
	.loc 1 163 0
	add	w26, w23, 9
.LVL18:
.LBB168:
.LBB167:
.LBB166:
.LBB163:
	.loc 4 818 0
	bl	__alloc_skb
.LVL19:
	mov	x20, x0
.LBE163:
.LBE166:
.LBE167:
.LBE168:
	.loc 1 165 0
	cbz	x0, .L26
.LBB169:
.LBB170:
.LBB171:
.LBB172:
	.loc 4 1880 0
	ldr	w1, [x0,156]
	.loc 4 1880 0 is_stmt 0 discriminator 1
	mov	w0, 0
	.loc 4 1880 0
	cbz	w1, .L27
.L13:
.LBE172:
.LBE171:
	.loc 3 449 0 is_stmt 1
	cmp	w19, w0
	bgt	.L15
	.loc 3 452 0
	mov	x0, x20
	mov	w1, 0
	mov	w2, 0
	mov	w3, 0
	mov	w4, w26
	mov	w5, 0
	bl	__nlmsg_put
.LVL20:
	mov	x22, x0
.LBE170:
.LBE169:
	.loc 1 171 0
	cbz	x0, .L15
	.loc 1 179 0
	mov	w1, 0
	sxtw	x2, w26
	add	x0, x0, 16
.LBB176:
.LBB177:
	.file 5 "/mnt/disk/jslave/ci/workspace/BKL_L04_B100_chipset/opensource/component_code/vendor/huawei/extra/build/build_script/kirin_kernel_release/kernel/include/linux/spinlock.h"
	.loc 5 307 0
	add	x19, x21, :lo12:.LANCHOR1
	add	x19, x19, 8
.LBE177:
.LBE176:
	.loc 1 179 0
	bl	memset
.LVL21:
	.loc 1 180 0
	sxtw	x2, w23
	mov	x1, x25
	add	x0, x22, 20
	bl	memcpy
.LVL22:
	.loc 1 181 0
	mov	w1, 1000
.LBB180:
.LBB178:
	.loc 5 307 0
	mov	x0, x19
.LBE178:
.LBE180:
	.loc 1 181 0
	str	w1, [x22,16]
.LBB181:
.LBB179:
	.loc 5 307 0
	bl	_raw_spin_lock_bh
.LVL23:
.LBE179:
.LBE181:
	.loc 1 183 0
	ldr	x0, [x21,#:lo12:.LANCHOR1]
	mov	x1, x20
	mov	w2, w24
	mov	w3, 64
	bl	netlink_unicast
.LVL24:
	mov	w21, w0
.LVL25:
.LBB182:
.LBB183:
	.loc 5 352 0
	mov	x0, x19
	bl	_raw_spin_unlock_bh
.LVL26:
.L11:
.LBE183:
.LBE182:
	.loc 1 187 0
	mov	w0, w21
	ldp	x19, x20, [sp,16]
	.cfi_remember_state
	.cfi_restore 20
	.cfi_restore 19
	ldp	x21, x22, [sp,32]
	.cfi_restore 22
	.cfi_restore 21
.LVL27:
	ldp	x23, x24, [sp,48]
	.cfi_restore 24
	.cfi_restore 23
.LVL28:
	ldp	x25, x26, [sp,64]
	.cfi_restore 26
	.cfi_restore 25
.LVL29:
	ldp	x29, x30, [sp], 80
	.cfi_restore 30
	.cfi_restore 29
	.cfi_def_cfa 31, 0
	ret
.LVL30:
.L27:
	.cfi_restore_state
.LBB184:
.LBB175:
.LBB174:
.LBB173:
	.loc 4 1880 0 discriminator 2
	ldr	w0, [x20,228]
	ldr	w1, [x20,224]
	sub	w0, w0, w1
	b	.L13
.L15:
.LBE173:
.LBE174:
.LBE175:
.LBE184:
	.loc 1 172 0
	adrp	x0, .LC6
	.loc 1 175 0
	mov	w21, -1
.LVL31:
	.loc 1 172 0
	add	x0, x0, :lo12:.LC6
	bl	printk
.LVL32:
	.loc 1 173 0
	mov	x0, x20
	bl	kfree_skb
.LVL33:
	b	.L11
.LVL34:
.L9:
	.loc 1 159 0
	adrp	x0, .LC4
	.loc 1 160 0
	mov	w21, -1
.LVL35:
	.loc 1 159 0
	add	x0, x0, :lo12:.LC4
	bl	printk
.LVL36:
	b	.L11
.LVL37:
.L26:
	.loc 1 166 0
	adrp	x0, .LC5
	.loc 1 167 0
	mov	w21, -1
.LVL38:
	.loc 1 166 0
	add	x0, x0, :lo12:.LC5
	bl	printk
.LVL39:
	b	.L11
	.cfi_endproc
.LFE3670:
	.size	notify_event.constprop.7, .-notify_event.constprop.7
	.align	2
	.global	proc_cmd
	.type	proc_cmd, %function
proc_cmd:
.LFB3652:
	.loc 1 68 0
	.cfi_startproc
.LVL40:
	stp	x29, x30, [sp, -16]!
	.cfi_def_cfa_offset 16
	.cfi_offset 29, -16
	.cfi_offset 30, -8
	.loc 1 69 0
	cmp	w0, 3
	.loc 1 68 0
	add	x29, sp, 0
	.cfi_def_cfa_register 29
	.loc 1 69 0
	beq	.L37
	.loc 1 71 0
	cmp	w0, 5
	beq	.L38
	.loc 1 73 0
	cmp	w0, 7
	beq	.L39
	.loc 1 75 0
	cmp	w0, 4
	beq	.L40
	.loc 1 77 0
	cmp	w0, 6
	beq	.L41
	.loc 1 79 0
	cmp	w0, 8
	beq	.L42
.LBB187:
.LBB188:
	.loc 1 81 0
	cmp	w0, 9
	bne	.L36
	.loc 1 82 0
	mov	w0, w1
.LVL41:
	mov	x1, x2
.LVL42:
	bl	download_notify
.LVL43:
.L28:
.LBE188:
.LBE187:
	.loc 1 85 0
	ldp	x29, x30, [sp], 16
	.cfi_remember_state
	.cfi_restore 30
	.cfi_restore 29
	.cfi_def_cfa 31, 0
	ret
.LVL44:
.L37:
	.cfi_restore_state
	.loc 1 70 0
	cmp	w1, wzr
	mov	x0, x2
.LVL45:
	cset	w1, ne
.LVL46:
	bl	add_ad_rule
.LVL47:
	b	.L28
.LVL48:
.L38:
	.loc 1 72 0
	mov	w0, w1
.LVL49:
	mov	x1, x2
.LVL50:
	bl	clear_ad_rule
.LVL51:
	b	.L28
.LVL52:
.L39:
	.loc 1 74 0
	bl	output_ad_rule
.LVL53:
	b	.L28
.LVL54:
.L40:
	.loc 1 76 0
	cmp	w1, wzr
	mov	x0, x2
.LVL55:
	cset	w1, ne
.LVL56:
	bl	add_appdl_rule
.LVL57:
	b	.L28
.LVL58:
.L41:
	.loc 1 78 0
	mov	w0, w1
.LVL59:
	mov	x1, x2
.LVL60:
	bl	clear_appdl_rule
.LVL61:
	b	.L28
.LVL62:
.L42:
	.loc 1 80 0
	bl	output_appdl_rule
.LVL63:
	b	.L28
.LVL64:
.L36:
.LBB190:
.LBB189:
	.loc 1 84 0
	mov	w1, w0
.LVL65:
	adrp	x0, .LC7
.LVL66:
	add	x0, x0, :lo12:.LC7
	bl	printk
.LVL67:
	b	.L28
.LBE189:
.LBE190:
	.cfi_endproc
.LFE3652:
	.size	proc_cmd, .-proc_cmd
	.align	2
	.type	kernel_hw_receive, %function
kernel_hw_receive:
.LFB3654:
	.loc 1 107 0
	.cfi_startproc
.LVL68:
	stp	x29, x30, [sp, -32]!
	.cfi_def_cfa_offset 32
	.cfi_offset 29, -32
	.cfi_offset 30, -24
	add	x29, sp, 0
	.cfi_def_cfa_register 29
	str	x19, [sp,16]
	.cfi_offset 19, -16
	.loc 1 107 0
	mov	x19, x0
	.loc 1 112 0
	cbz	x0, .L56
.LBB191:
.LBB192:
.LBB193:
.LBB194:
	.file 6 "/mnt/disk/jslave/ci/workspace/BKL_L04_B100_chipset/opensource/component_code/vendor/huawei/extra/build/build_script/kirin_kernel_release/kernel/arch/arm64/include/asm/atomic_ll_sc.h"
	.loc 6 90 0
	add	x2, x0, 252
#APP
// 90 "/mnt/disk/jslave/ci/workspace/BKL_L04_B100_chipset/opensource/component_code/vendor/huawei/extra/build/build_script/kirin_kernel_release/kernel/arch/arm64/include/asm/atomic_ll_sc.h" 1
	// atomic_add
	prfm	pstl1strm, [x2]
1:	ldxr	w0, [x2]
	add	w0, w0, 1
	stxr	w1, w0, [x2]
	cbnz	w1, 1b
// 0 "" 2
.LVL69:
#NO_APP
.LBE194:
.LBE193:
.LBE192:
.LBE191:
	.loc 1 121 0
	ldr	w0, [x19,152]
.LVL70:
	cmp	w0, 15
	bls	.L46
	ldr	x1, [x19,240]
.LVL71:
	.loc 1 123 0
	cbz	x1, .L57
	.loc 1 128 0
	ldr	w2, [x1]
	.loc 1 128 0 is_stmt 0 discriminator 1
	cmp	w2, 15
	bls	.L46
	cmp	w0, w2
	bcc	.L46
	.loc 1 130 0 is_stmt 1
	ldrh	w0, [x1,4]
	cbnz	w0, .L48
	.loc 1 131 0
	adrp	x0, .LANCHOR1+32
	ldr	w1, [x1,12]
	str	w1, [x0,#:lo12:.LANCHOR1+32]
.LVL72:
.L46:
	.loc 1 145 0
	mov	x0, x19
	bl	kfree_skb
.LVL73:
.L43:
	.loc 1 146 0
	ldr	x19, [sp,16]
	.cfi_remember_state
	.cfi_restore 19
.LVL74:
	ldp	x29, x30, [sp], 32
	.cfi_restore 30
	.cfi_restore 29
	.cfi_def_cfa 31, 0
	ret
.LVL75:
.L48:
	.cfi_restore_state
	.loc 1 132 0
	cmp	w0, 1
	beq	.L58
.LBB195:
.LBB196:
	.loc 1 99 0
	subs	w3, w2, #21
.LVL76:
	bmi	.L46
.LBE196:
.LBE195:
	.loc 1 136 0
	add	x0, x1, 20
.LVL77:
	.loc 1 141 0
	mov	x2, x0
.LBB198:
.LBB197:
	.loc 1 102 0
	strb	wzr, [x0,w3,sxtw]
.LBE197:
.LBE198:
	.loc 1 141 0
	ldrh	w0, [x1,4]
.LVL78:
	ldr	w1, [x1,16]
	bl	proc_cmd
.LVL79:
	b	.L46
.L58:
	.loc 1 133 0
	adrp	x0, .LANCHOR1+32
	str	wzr, [x0,#:lo12:.LANCHOR1+32]
	b	.L46
.LVL80:
.L56:
	.loc 1 113 0
	adrp	x0, .LC8
.LVL81:
	add	x0, x0, :lo12:.LC8
	bl	printk
.LVL82:
	.loc 1 114 0
	b	.L43
.L57:
	.loc 1 124 0
	adrp	x0, .LC9
	add	x0, x0, :lo12:.LC9
	bl	printk
.LVL83:
	.loc 1 125 0
	mov	x0, x19
	bl	kfree_skb
.LVL84:
	.loc 1 126 0
	b	.L43
	.cfi_endproc
.LFE3654:
	.size	kernel_hw_receive, .-kernel_hw_receive
	.align	2
	.global	check_str
	.type	check_str, %function
check_str:
.LFB3653:
	.loc 1 88 0
	.cfi_startproc
.LVL85:
	.loc 1 94 0
	add	x1, x0, 20
.LVL86:
	.loc 1 97 0
	ldr	w0, [x0]
.LVL87:
	.loc 1 99 0
	subs	w0, w0, #21
.LVL88:
	bmi	.L61
	.loc 1 102 0
	strb	wzr, [x1,w0,sxtw]
	.loc 1 103 0
	mov	w0, 0
.LVL89:
	.loc 1 104 0
	ret
.LVL90:
.L61:
	.loc 1 100 0
	mov	w0, 1
.LVL91:
	.loc 1 104 0
	ret
	.cfi_endproc
.LFE3653:
	.size	check_str, .-check_str
	.align	2
	.global	download_app_pro
	.type	download_app_pro, %function
download_app_pro:
.LFB3658:
	.loc 1 211 0
	.cfi_startproc
.LVL92:
	stp	x29, x30, [sp, -80]!
	.cfi_def_cfa_offset 80
	.cfi_offset 29, -80
	.cfi_offset 30, -72
	add	x29, sp, 0
	.cfi_def_cfa_register 29
	stp	x21, x22, [sp,32]
	stp	x23, x24, [sp,48]
	.cfi_offset 21, -48
	.cfi_offset 22, -40
	.cfi_offset 23, -32
	.cfi_offset 24, -24
	mov	x21, x0
	mov	w24, w1
	.loc 1 212 0
	mov	x0, x2
.LVL93:
	mov	w1, w3
.LVL94:
	.loc 1 211 0
	stp	x19, x20, [sp,16]
	str	x25, [sp,64]
	.cfi_offset 19, -64
	.cfi_offset 20, -56
	.cfi_offset 25, -16
	.loc 1 211 0
	mov	x23, x2
	mov	w22, w3
	mov	x25, x4
	.loc 1 212 0
	bl	get_url_path
.LVL95:
	mov	x19, x0
.LVL96:
	.loc 1 220 0
	cbz	x0, .L85
	.loc 1 222 0
	mov	x0, x21
	bl	get_select
.LVL97:
	mov	w20, w0
.LVL98:
	.loc 1 223 0
	cbz	w0, .L69
	.loc 1 224 0
	mov	x0, x19
	bl	kfree
.LVL99:
	.loc 1 225 0
	cmp	w20, 3
	beq	.L76
	.loc 1 227 0
	cmp	w20, 2
	beq	.L85
	.loc 1 229 0
	cmp	w20, 1
	beq	.L70
.L69:
	.loc 1 232 0
	mov	x0, x21
	mov	w1, w24
	mov	x2, x19
	bl	get_download_monitor
.LVL100:
	mov	x21, x0
.LVL101:
	.loc 1 233 0
	mov	x0, x19
	bl	kfree
.LVL102:
	.loc 1 234 0
	cbz	x21, .L87
	.loc 1 238 0
	ldrb	w0, [x21,72]
	cbz	w0, .L88
.LVL103:
.L70:
	.loc 1 230 0
	mov	w0, -1
.L64:
	.loc 1 269 0
	ldp	x19, x20, [sp,16]
	.cfi_remember_state
	.cfi_restore 20
	.cfi_restore 19
.LVL104:
	ldp	x21, x22, [sp,32]
	.cfi_restore 22
	.cfi_restore 21
.LVL105:
	ldp	x23, x24, [sp,48]
	.cfi_restore 24
	.cfi_restore 23
.LVL106:
	ldr	x25, [sp,64]
	.cfi_restore 25
.LVL107:
	ldp	x29, x30, [sp], 80
	.cfi_restore 30
	.cfi_restore 29
	.cfi_def_cfa 31, 0
	ret
.LVL108:
.L84:
	.cfi_restore_state
	.loc 1 254 0
	mov	x0, x21
	bl	free_node
.LVL109:
.L85:
	.loc 1 255 0
	mov	w0, 1
	.loc 1 269 0
	ldr	x25, [sp,64]
	.cfi_remember_state
	.cfi_restore 25
.LVL110:
	ldp	x19, x20, [sp,16]
	.cfi_restore 19
	.cfi_restore 20
.LVL111:
	ldp	x21, x22, [sp,32]
	.cfi_restore 21
	.cfi_restore 22
.LVL112:
	ldp	x23, x24, [sp,48]
	.cfi_restore 23
	.cfi_restore 24
.LVL113:
	ldp	x29, x30, [sp], 80
	.cfi_restore 29
	.cfi_restore 30
	.cfi_def_cfa 31, 0
	ret
.LVL114:
.L88:
	.cfi_restore_state
	.loc 1 240 0
	mov	x0, x23
	mov	w1, w22
	bl	get_url_form_data
.LVL115:
	mov	x19, x0
.LVL116:
	.loc 1 241 0
	cbz	x0, .L84
	.loc 1 245 0
	ldr	w0, [x21,80]
	mov	w1, w24
	mov	x2, x19
	mov	x3, x25
	bl	get_report_msg
.LVL117:
	mov	x22, x0
.LVL118:
	.loc 1 246 0
	mov	x0, x19
	bl	kfree
.LVL119:
	.loc 1 247 0
	cbz	x22, .L84
	.loc 1 251 0
	adrp	x0, .LANCHOR1+32
	mov	x1, x22
	ldr	w0, [x0,#:lo12:.LANCHOR1+32]
	bl	notify_event.constprop.7
.LVL120:
	mov	w19, w0
.LVL121:
	.loc 1 252 0
	mov	x0, x22
	bl	kfree
.LVL122:
	.loc 1 253 0
	tbnz	w19, #31, .L84
.LBB199:
.LBB200:
.LBB201:
.LBB202:
	.file 7 "/mnt/disk/jslave/ci/workspace/BKL_L04_B100_chipset/opensource/component_code/vendor/huawei/extra/build/build_script/kirin_kernel_release/kernel/arch/arm64/include/asm/thread_info.h"
	.loc 7 84 0
	adrp	x1, kti_offset
	.loc 7 82 0
#APP
// 82 "/mnt/disk/jslave/ci/workspace/BKL_L04_B100_chipset/opensource/component_code/vendor/huawei/extra/build/build_script/kirin_kernel_release/kernel/arch/arm64/include/asm/thread_info.h" 1
	mrs x0, sp_el0
// 0 "" 2
.LVL123:
	.loc 7 84 0
#NO_APP
	ldr	x1, [x1,#:lo12:kti_offset]
	add	x0, x0, x1
.LVL124:
.LBE202:
.LBE201:
.LBB203:
.LBB204:
	.file 8 "/mnt/disk/jslave/ci/workspace/BKL_L04_B100_chipset/opensource/component_code/vendor/huawei/extra/build/build_script/kirin_kernel_release/kernel/include/linux/compiler.h"
	.loc 8 218 0 discriminator 4
	ldr	w2, [x0,24]
.LBE204:
.LBE203:
.LBE200:
.LBE199:
	.loc 1 257 0
	tst	w2, 983040
	bne	.L74
.LBB205:
.LBB206:
.LBB207:
.LBB208:
	.loc 8 218 0 discriminator 4
	ldr	w0, [x0,24]
.LBE208:
.LBE207:
.LBE206:
.LBE205:
	.loc 1 257 0 discriminator 1
	tst	w0, 2096896
	bne	.L74
	.loc 1 258 0
	mov	x0, x21
	bl	wait_user_event
.LVL125:
	mov	w20, w0
	.loc 1 263 0
	cbz	w20, .L70
.L89:
	.loc 1 264 0
	cmp	w20, 2
	cset	w0, eq
	b	.L64
.LVL126:
.L76:
	.loc 1 226 0
	mov	w0, 0
	b	.L64
.LVL127:
.L87:
	.loc 1 235 0
	adrp	x0, .LC10
	add	x0, x0, :lo12:.LC10
	bl	printk
.LVL128:
	.loc 1 236 0
	mov	w0, 1
	b	.L64
.LVL129:
.L74:
.LBB209:
.LBB210:
.LBB211:
.LBB212:
	.loc 7 82 0
#APP
// 82 "/mnt/disk/jslave/ci/workspace/BKL_L04_B100_chipset/opensource/component_code/vendor/huawei/extra/build/build_script/kirin_kernel_release/kernel/arch/arm64/include/asm/thread_info.h" 1
	mrs x0, sp_el0
// 0 "" 2
.LVL130:
	.loc 7 84 0
#NO_APP
	add	x1, x0, x1
.LBE212:
.LBE211:
.LBE210:
.LBE209:
	.loc 1 260 0 discriminator 2
	adrp	x0, .LC11
.LVL131:
	add	x0, x0, :lo12:.LC11
.LBB216:
.LBB215:
.LBB213:
.LBB214:
	.loc 8 218 0 discriminator 4
	ldr	w3, [x1,24]
.LBE214:
.LBE213:
.LBE215:
.LBE216:
.LBB217:
.LBB218:
.LBB219:
.LBB220:
	ldr	w2, [x1,24]
.LBE220:
.LBE219:
.LBE218:
.LBE217:
	.loc 1 260 0 discriminator 2
	and	w1, w3, 983040
	and	w2, w2, 2096896
	bl	printk
.LVL132:
	.loc 1 263 0
	cbz	w20, .L70
	b	.L89
	.cfi_endproc
.LFE3658:
	.size	download_app_pro, .-download_app_pro
	.align	2
	.global	hw_match_httppack
	.type	hw_match_httppack, %function
hw_match_httppack:
.LFB3659:
	.loc 1 273 0
	.cfi_startproc
.LVL133:
	stp	x29, x30, [sp, -64]!
	.cfi_def_cfa_offset 64
	.cfi_offset 29, -64
	.cfi_offset 30, -56
	add	x29, sp, 0
	.cfi_def_cfa_register 29
	stp	x19, x20, [sp,16]
	.cfi_offset 19, -48
	.cfi_offset 20, -40
	mov	x20, x0
	.loc 1 278 0
	mov	w0, w1
.LVL134:
	.loc 1 273 0
	stp	x21, x22, [sp,32]
	stp	x23, x24, [sp,48]
	.cfi_offset 21, -32
	.cfi_offset 22, -24
	.cfi_offset 23, -16
	.cfi_offset 24, -8
	.loc 1 273 0
	mov	w19, w1
	mov	x21, x2
	mov	w22, w3
	mov	x23, x4
	.loc 1 278 0
	bl	match_appdl_uid
.LVL135:
	uxtb	w0, w0
	cbnz	w0, .L122
.L91:
	.loc 1 284 0 discriminator 1
	mov	w0, w19
	bl	match_ad_uid
.LVL136:
	uxtb	w0, w0
	cbnz	w0, .L123
.L93:
	.loc 1 273 0
	mov	w20, 1
.LVL137:
.L120:
	.loc 1 312 0
	cmn	w19, #1
	beq	.L94
.L109:
	.loc 1 325 0
	mov	w0, w20
	ldp	x19, x20, [sp,16]
	.cfi_remember_state
	.cfi_restore 20
	.cfi_restore 19
.LVL138:
	ldp	x21, x22, [sp,32]
	.cfi_restore 22
	.cfi_restore 21
.LVL139:
	ldp	x23, x24, [sp,48]
	.cfi_restore 24
	.cfi_restore 23
.LVL140:
	ldp	x29, x30, [sp], 64
	.cfi_restore 30
	.cfi_restore 29
	.cfi_def_cfa 31, 0
	ret
.LVL141:
.L122:
	.cfi_restore_state
	.loc 1 279 0
	mov	x0, x21
	mov	w1, w22
	bl	match_appdl_url
.LVL142:
	uxtb	w0, w0
	cbz	w0, .L91
	.loc 1 281 0
	mov	x0, x20
	mov	w1, w19
	mov	x2, x21
	mov	w3, w22
	mov	x4, x23
	bl	download_app_pro
.LVL143:
	mov	w20, w0
.LVL144:
	.loc 1 312 0
	cbnz	w0, .L120
.LVL145:
.L94:
	.loc 1 313 0
	mov	x0, x21
	mov	w1, w22
	bl	get_url_path
.LVL146:
	mov	x19, x0
.LVL147:
	.loc 1 314 0
	cbz	x0, .L109
	.loc 1 316 0
	bl	strlen
.LVL148:
	mov	x1, x0
	.loc 1 316 0 is_stmt 0 discriminator 1
	mov	x0, x19
	bl	is_droplist
.LVL149:
	uxtb	w0, w0
	.loc 1 316 0
	cbnz	w0, .L103
	.loc 1 319 0 is_stmt 1
	cbz	w20, .L124
.L100:
	.loc 1 322 0
	mov	x0, x19
	bl	kfree
.LVL150:
	.loc 1 325 0
	mov	w0, w20
	ldp	x19, x20, [sp,16]
	.cfi_remember_state
	.cfi_restore 19
	.cfi_restore 20
.LVL151:
	ldp	x21, x22, [sp,32]
	.cfi_restore 21
	.cfi_restore 22
.LVL152:
	ldp	x23, x24, [sp,48]
	.cfi_restore 23
	.cfi_restore 24
.LVL153:
	ldp	x29, x30, [sp], 64
	.cfi_restore 29
	.cfi_restore 30
	.cfi_def_cfa 31, 0
	ret
.LVL154:
.L123:
	.cfi_restore_state
	.loc 1 285 0
	mov	w0, w19
	mov	x1, x21
	mov	w2, w22
	bl	match_ad_url
.LVL155:
	uxtb	w0, w0
	cbz	w0, .L93
.LBB221:
	.loc 1 290 0
	adrp	x24, .LANCHOR1
	bl	get_cur_time
.LVL156:
	add	x24, x24, :lo12:.LANCHOR1
	mov	w20, 0
.LVL157:
	ldr	x1, [x24,40]
	sub	x0, x0, x1
	cmp	x0, 1000
	bls	.L94
	.loc 1 291 0
	bl	get_cur_time
.LVL158:
	str	x0, [x24,40]
	.loc 1 293 0
	mov	w1, w22
	mov	x0, x21
	bl	get_url_form_data
.LVL159:
	mov	x20, x0
.LVL160:
	.loc 1 294 0
	cbz	x0, .L125
	.loc 1 298 0
	mov	w1, w19
	mov	w0, 100
	mov	x2, x20
	mov	x3, x23
	bl	get_report_msg
.LVL161:
	mov	x19, x0
.LVL162:
	.loc 1 299 0
	cbz	x0, .L97
	.loc 1 300 0
	ldr	w0, [x24,32]
	mov	x1, x19
	bl	notify_event.constprop.7
.LVL163:
	.loc 1 303 0
	mov	x0, x19
	bl	kfree
.LVL164:
.L98:
	.loc 1 307 0
	mov	x0, x20
	mov	w20, 0
.LVL165:
	bl	kfree
.LVL166:
	b	.L94
.LVL167:
.L103:
.LBE221:
	.loc 1 317 0
	mov	w20, 0
	b	.L100
.L124:
	.loc 1 320 0
	mov	x0, x19
	bl	strlen
.LVL168:
	mov	x1, x0
	.loc 1 320 0 is_stmt 0 discriminator 1
	mov	x0, x19
	bl	add_to_droplist
.LVL169:
	b	.L100
.LVL170:
.L97:
.LBB222:
	.loc 1 305 0 is_stmt 1
	adrp	x0, .LC13
.LVL171:
	add	x0, x0, :lo12:.LC13
	bl	printk
.LVL172:
	b	.L98
.LVL173:
.L125:
	.loc 1 295 0
	adrp	x0, .LC12
	.loc 1 296 0
	mov	w20, 1
.LVL174:
	.loc 1 295 0
	add	x0, x0, :lo12:.LC12
	bl	printk
.LVL175:
	.loc 1 296 0
	b	.L109
.LBE222:
	.cfi_endproc
.LFE3659:
	.size	hw_match_httppack, .-hw_match_httppack
	.align	2
	.type	net_hw_hook_localout, %function
net_hw_hook_localout:
.LFB3660:
	.loc 1 333 0
	.cfi_startproc
.LVL176:
	stp	x29, x30, [sp, -128]!
	.cfi_def_cfa_offset 128
	.cfi_offset 29, -128
	.cfi_offset 30, -120
	add	x29, sp, 0
	.cfi_def_cfa_register 29
	stp	x19, x20, [sp,16]
	stp	x21, x22, [sp,32]
	stp	x23, x24, [sp,48]
	str	x25, [sp,64]
	.cfi_offset 19, -112
	.cfi_offset 20, -104
	.cfi_offset 21, -96
	.cfi_offset 22, -88
	.cfi_offset 23, -80
	.cfi_offset 24, -72
	.cfi_offset 25, -64
	.loc 1 333 0
	adrp	x20, __stack_chk_guard
	mov	x19, x1
.LBB241:
.LBB242:
	.loc 4 1691 0
	ldr	w0, [x1,152]
.LVL177:
	ldr	w2, [x1,156]
.LVL178:
.LBE242:
.LBE241:
	.loc 1 333 0
	ldr	x1, [x20,#:lo12:__stack_chk_guard]
.LVL179:
.LBB244:
.LBB243:
	.loc 4 1691 0
	sub	w0, w0, w2
.LBE243:
.LBE244:
	.loc 1 333 0
	str	x1, [x29,120]
	.loc 1 341 0
	cmp	w0, 19
	bls	.L157
	ldr	x2, [x19,232]
.LBB245:
.LBB246:
.LBB247:
.LBB248:
.LBB249:
	.loc 4 2040 0
	ldrh	w1, [x19,220]
	add	x21, x2, x1
.LBE249:
.LBE248:
.LBE247:
	.file 9 "/mnt/disk/jslave/ci/workspace/BKL_L04_B100_chipset/opensource/component_code/vendor/huawei/extra/build/build_script/kirin_kernel_release/kernel/include/net/ip.h"
	.loc 9 55 0
	ldrb	w1, [x2,x1]
	and	w1, w1, 15
	lsl	w3, w1, 2
.LBE246:
.LBE245:
	.loc 1 341 0 discriminator 1
	cmp	w3, 19
	ble	.L157
.LBB250:
.LBB251:
.LBB252:
	.loc 4 2023 0
	ldrh	w3, [x19,218]
.LBE252:
.LBE251:
.LBE250:
	.loc 1 348 0
	adds	x25, x2, x3
	beq	.L144
	cbz	x21, .L144
	.loc 1 352 0
	ldrb	w2, [x21,9]
	cmp	w2, 6
	beq	.L159
.LVL180:
.L157:
	.loc 1 350 0
	mov	w0, 1
.L128:
	.loc 1 391 0
	ldr	x2, [x29,120]
.LVL181:
	ldr	x1, [x20,#:lo12:__stack_chk_guard]
	cmp	x2, x1
	bne	.L160
	ldp	x19, x20, [sp,16]
	.cfi_remember_state
	.cfi_restore 20
	.cfi_restore 19
.LVL182:
	ldp	x21, x22, [sp,32]
	.cfi_restore 22
	.cfi_restore 21
.LVL183:
	ldp	x23, x24, [sp,48]
	.cfi_restore 24
	.cfi_restore 23
	ldr	x25, [sp,64]
	.cfi_restore 25
	ldp	x29, x30, [sp], 128
	.cfi_restore 30
	.cfi_restore 29
	.cfi_def_cfa 31, 0
	ret
.LVL184:
.L159:
	.cfi_restore_state
	.loc 1 355 0
	ldr	x2, [x19,240]
.LVL185:
	.loc 1 356 0
	cbz	x2, .L157
.LBB253:
	.loc 1 359 0
	ubfiz	x1, x1, 2, 4
	add	x1, x21, x1
.LVL186:
	.loc 1 360 0
	ldrb	w22, [x1,12]
	ubfx	x22, x22, 4, 4
	add	x22, x1, x22, lsl 2
.LVL187:
	.loc 1 361 0
	sub	x4, x21, x22
	add	w4, w0, w4
	.loc 1 362 0
	sub	w1, w4, #5
.LVL188:
	.loc 1 364 0
	cmp	w1, 1495
	bhi	.L157
	cmp	x2, x22
	bhi	.L157
	.loc 1 366 0
	add	x0, x2, x0, uxtw
	add	x1, x22, x4, uxtw
	cmp	x0, x1
	bcc	.L157
	.loc 1 370 0
	adrp	x24, .LANCHOR0
	cmp	w4, 1000
	add	x1, x24, :lo12:.LANCHOR0
	mov	x0, x22
	add	x1, x1, 56
	mov	w2, 5
.LVL189:
	mov	w23, 1000
	csel	w23, w4, w23, le
	bl	strfindpos
.LVL190:
	cbz	x0, .L161
.L156:
.LBB254:
	.loc 1 380 0
	ldrh	w0, [x25,2]
	.loc 1 375 0 discriminator 4
	adrp	x1, .LC15
	.loc 1 376 0
	ldr	w5, [x21,16]
	.loc 1 375 0 discriminator 4
	add	x1, x1, :lo12:.LC15
.LBB255:
.LBB256:
	.file 10 "/mnt/disk/jslave/ci/workspace/BKL_L04_B100_chipset/opensource/component_code/vendor/huawei/extra/build/build_script/kirin_kernel_release/kernel/include/uapi/linux/swab.h"
	.loc 10 53 0
	lsl	w6, w0, 8
	orr	w6, w6, w0, lsr 8
.LBE256:
.LBE255:
	.loc 1 375 0
	and	w2, w5, 255
	ubfx	x3, x5, 8, 8
	ubfx	x4, x5, 16, 8
	.loc 1 375 0 is_stmt 0 discriminator 4
	add	x0, x29, 88
	.loc 1 375 0
	lsr	w5, w5, 24
	.loc 1 375 0 discriminator 4
	uxth	w6, w6
	bl	sprintf
.LVL191:
.LBB257:
.LBB258:
	.loc 1 49 0 is_stmt 1
	cbz	x19, .L139
	.loc 1 51 0
	ldr	x0, [x19,24]
.LVL192:
	.loc 1 52 0
	cbz	x0, .L139
	.loc 1 54 0 discriminator 1
	ldrb	w1, [x0,18]
	.loc 1 50 0
	mov	w21, -1
	.loc 1 54 0 discriminator 1
	uxtb	w1, w1
	cmp	w1, 6
	beq	.L133
	.loc 1 56 0
	ldr	x0, [x0,728]
.LVL193:
	cbz	x0, .L133
	.loc 1 56 0 is_stmt 0 discriminator 1
	ldr	x0, [x0,24]
	.loc 1 57 0 is_stmt 1
	cbz	x0, .L133
	ldr	x0, [x0,216]
	ldr	w21, [x0,28]
.LVL194:
.L133:
.LBE258:
.LBE257:
	.loc 1 382 0
	mov	x0, x19
.LVL195:
	mov	w1, w21
	mov	x2, x22
	mov	w3, w23
	add	x4, x29, 88
	bl	hw_match_httppack
.LVL196:
	.loc 1 383 0
	cbnz	w0, .L134
.LBB260:
.LBB261:
	.loc 1 201 0
	ldr	x0, [x19,24]
.LVL197:
	cbnz	x0, .L162
.LBE261:
.LBE260:
	mov	w0, 0
	b	.L128
.LVL198:
.L134:
.LBE254:
.LBE253:
	.loc 1 388 0
	cmn	w0, #1
	csel	w0, w0, wzr, ne
.LVL199:
	b	.L128
.LVL200:
.L139:
.LBB267:
.LBB265:
.LBB263:
.LBB259:
	.loc 1 50 0
	mov	w21, -1
	b	.L133
.LVL201:
.L161:
.LBE259:
.LBE263:
.LBE265:
	.loc 1 371 0
	add	x1, x24, :lo12:.LANCHOR0
	mov	x0, x22
	add	x1, x1, 64
	mov	w2, 5
	bl	strfindpos
.LVL202:
	.loc 1 370 0 discriminator 1
	cbnz	x0, .L156
	b	.L157
.L160:
.LBE267:
	.loc 1 391 0
	bl	__stack_chk_fail
.LVL203:
.L144:
	.loc 1 349 0
	adrp	x0, .LC14
	add	x0, x0, :lo12:.LC14
	bl	printk
.LVL204:
	b	.L157
.LVL205:
.L162:
.LBB268:
.LBB266:
.LBB264:
.LBB262:
	.loc 1 202 0
	mov	w1, 104
	str	w1, [x0,608]
	.loc 1 203 0
	ldr	x1, [x19,24]
	mov	x0, x1
	ldr	x1, [x1,824]
	blr	x1
.LVL206:
	.loc 1 204 0
	ldr	x4, [x19,24]
	adrp	x0, .LC16
	mov	w1, w21
	add	x0, x0, :lo12:.LC16
	mov	x3, x19
	ldr	w2, [x4,608]
	bl	printk
.LVL207:
.LBE262:
.LBE264:
	mov	w0, 0
	b	.L128
.LBE266:
.LBE268:
	.cfi_endproc
.LFE3660:
	.size	net_hw_hook_localout, .-net_hw_hook_localout
	.global	g_http_s
	.global	g_post_s
	.global	g_get_s
	.section	__modver,"a",%progbits
	.align	3
	.type	__modver_attr, %object
	.size	__modver_attr, 8
__modver_attr:
	.xword	___modver_attr
	.section	.exitcall.exit,"aw",%progbits
	.align	3
	.type	__exitcall_nf_exit, %object
	.size	__exitcall_nf_exit, 8
__exitcall_nf_exit:
	.xword	nf_exit
	.section	__hwlog_tag,"aw",%progbits
	.align	3
	.type	_hwtag_ARGO, %object
	.size	_hwtag_ARGO, 16
_hwtag_ARGO:
	.xword	.LC20
	.word	7
	.zero	4
	.section	.initcall6.init,"aw",%progbits
	.align	3
	.type	__initcall_nf_init6, %object
	.size	__initcall_nf_init6, 8
__initcall_nf_init6:
	.xword	nf_init
	.data
	.align	3
.LANCHOR0 = . + 0
	.type	net_hooks, %object
	.size	net_hooks, 56
net_hooks:
	.zero	16
	.xword	net_hw_hook_localout
	.zero	16
	.byte	2
	.zero	3
	.word	3
	.word	-1
	.zero	4
	.type	g_get_s, %object
	.size	g_get_s, 4
g_get_s:
	.byte	71
	.byte	69
	.byte	84
	.byte	0
	.zero	4
	.type	g_post_s, %object
	.size	g_post_s, 5
g_post_s:
	.byte	80
	.byte	79
	.byte	83
	.byte	84
	.byte	0
	.zero	3
	.type	___modver_attr, %object
	.size	___modver_attr, 72
___modver_attr:
	.xword	.LC17
	.hword	292
	.zero	6
	.xword	__modver_version_show
	.zero	32
	.xword	.LC18
	.xword	.LC19
	.type	g_http_s, %object
	.size	g_http_s, 5
g_http_s:
	.byte	72
	.byte	84
	.byte	84
	.byte	80
	.byte	0
	.section	.rodata.str1.8,"aMS",%progbits,1
	.align	3
.LC0:
	.string	"\0016hwad:nf_init ret=%d  "
.LC1:
	.string	"\0016hwad: netlink_init failed NETLINK_HW_NF\n"
	.zero	5
.LC2:
	.string	"&(&g_netlink_lock)->rlock"
	.zero	6
.LC3:
	.string	"\0016hwad:nf_init success\n"
.LC4:
	.string	"\0016hwad:cannot notify pid 0 or nlfd 0\n"
	.zero	2
.LC5:
	.string	"\0016hwad: alloc skb fail\n"
.LC6:
	.string	"\0016hwad: notify_event fail\n"
	.zero	5
.LC7:
	.string	"\0016hwad:kernel_hw_receive cmd=%d\n"
	.zero	7
.LC8:
	.string	"\0013Invalid parameter: zero pointer reference(__skb)\n"
	.zero	4
.LC9:
	.string	"\0013wifi_tcp_nl_receive  nlh = NULL\n"
	.zero	5
.LC10:
	.string	"\0016hwad:get_download_monitor=NULL\n "
	.zero	5
.LC11:
	.string	"\0016hwad:in_irq=%d in_interrupt=%d"
	.zero	7
.LC12:
	.string	"\0016hwad:notify_event ad tempurl=NULL\n"
	.zero	3
.LC13:
	.string	"\0016hwad:report to systemmanager false\n"
	.zero	2
.LC14:
	.string	"\0016\nhwad:net_hw_hook_localout drop NULL==iph\n"
	.zero	3
.LC15:
	.string	"%d.%d.%d.%d:%d"
	.zero	1
.LC16:
	.string	"\0016hwad:reject: uid=%d sk_err=%d for skb=%p sk=%p\n"
	.zero	6
.LC17:
	.string	"version"
.LC18:
	.string	"nf_hw_hook"
	.zero	5
.LC19:
	.string	"1.0.1"
	.zero	2
.LC20:
	.string	"ARGO"
	.bss
	.align	3
.LANCHOR1 = . + 0
	.type	g_hw_nlfd, %object
	.size	g_hw_nlfd, 8
g_hw_nlfd:
	.zero	8
	.type	g_netlink_lock, %object
	.size	g_netlink_lock, 24
g_netlink_lock:
	.zero	24
	.type	__key.49815, %object
	.size	__key.49815, 0
__key.49815:
	.type	g_uspa_pid, %object
	.size	g_uspa_pid, 4
g_uspa_pid:
	.zero	4
	.zero	4
	.type	g_lastrepot, %object
	.size	g_lastrepot, 8
g_lastrepot:
	.zero	8
	.text
.Letext0:
	.file 11 "/mnt/disk/jslave/ci/workspace/BKL_L04_B100_chipset/opensource/component_code/vendor/huawei/extra/build/build_script/kirin_kernel_release/kernel/include/uapi/asm-generic/int-ll64.h"
	.file 12 "/mnt/disk/jslave/ci/workspace/BKL_L04_B100_chipset/opensource/component_code/vendor/huawei/extra/build/build_script/kirin_kernel_release/kernel/include/asm-generic/int-ll64.h"
	.file 13 "/mnt/disk/jslave/ci/workspace/BKL_L04_B100_chipset/opensource/component_code/vendor/huawei/extra/build/build_script/kirin_kernel_release/kernel/include/uapi/asm-generic/posix_types.h"
	.file 14 "/mnt/disk/jslave/ci/workspace/BKL_L04_B100_chipset/opensource/component_code/vendor/huawei/extra/build/build_script/kirin_kernel_release/kernel/include/uapi/linux/types.h"
	.file 15 "/mnt/disk/jslave/ci/workspace/BKL_L04_B100_chipset/opensource/component_code/vendor/huawei/extra/build/build_script/kirin_kernel_release/kernel/include/linux/types.h"
	.file 16 "/mnt/disk/jslave/ci/workspace/BKL_L04_B100_chipset/opensource/component_code/vendor/huawei/extra/build/build_script/kirin_kernel_release/kernel/include/linux/export.h"
	.file 17 "/mnt/disk/jslave/ci/workspace/BKL_L04_B100_chipset/opensource/component_code/vendor/huawei/extra/build/build_script/kirin_kernel_release/kernel/include/linux/init.h"
	.file 18 "/mnt/disk/jslave/ci/workspace/BKL_L04_B100_chipset/opensource/component_code/vendor/huawei/extra/build/build_script/kirin_kernel_release/kernel/include/linux/capability.h"
	.file 19 "/mnt/disk/jslave/ci/workspace/BKL_L04_B100_chipset/opensource/component_code/vendor/huawei/extra/build/build_script/kirin_kernel_release/kernel/include/asm-generic/bug.h"
	.file 20 "/mnt/disk/jslave/ci/workspace/BKL_L04_B100_chipset/opensource/component_code/vendor/huawei/extra/build/build_script/kirin_kernel_release/kernel/include/linux/thread_info.h"
	.file 21 "/mnt/disk/jslave/ci/workspace/BKL_L04_B100_chipset/opensource/component_code/vendor/huawei/extra/build/build_script/kirin_kernel_release/kernel/include/uapi/linux/time.h"
	.file 22 "/mnt/disk/jslave/ci/workspace/BKL_L04_B100_chipset/opensource/component_code/vendor/huawei/extra/build/build_script/kirin_kernel_release/kernel/arch/arm64/include/asm/compat.h"
	.file 23 "/mnt/disk/jslave/ci/workspace/BKL_L04_B100_chipset/opensource/component_code/vendor/huawei/extra/build/build_script/kirin_kernel_release/kernel/include/uapi/asm-generic/poll.h"
	.file 24 "/mnt/disk/jslave/ci/workspace/BKL_L04_B100_chipset/opensource/component_code/vendor/huawei/extra/build/build_script/kirin_kernel_release/kernel/include/linux/sched.h"
	.file 25 "/mnt/disk/jslave/ci/workspace/BKL_L04_B100_chipset/opensource/component_code/vendor/huawei/extra/build/build_script/kirin_kernel_release/kernel/arch/arm64/include/uapi/asm/ptrace.h"
	.file 26 "/mnt/disk/jslave/ci/workspace/BKL_L04_B100_chipset/opensource/component_code/vendor/huawei/extra/build/build_script/kirin_kernel_release/kernel/arch/arm64/include/asm/spinlock_types.h"
	.file 27 "/mnt/disk/jslave/ci/workspace/BKL_L04_B100_chipset/opensource/component_code/vendor/huawei/extra/build/build_script/kirin_kernel_release/kernel/include/linux/spinlock_types.h"
	.file 28 "/mnt/disk/jslave/ci/workspace/BKL_L04_B100_chipset/opensource/component_code/vendor/huawei/extra/build/build_script/kirin_kernel_release/kernel/include/linux/rwlock_types.h"
	.file 29 "/mnt/disk/jslave/ci/workspace/BKL_L04_B100_chipset/opensource/component_code/vendor/huawei/extra/build/build_script/kirin_kernel_release/kernel/arch/arm64/include/asm/fpsimd.h"
	.file 30 "/mnt/disk/jslave/ci/workspace/BKL_L04_B100_chipset/opensource/component_code/vendor/huawei/extra/build/build_script/kirin_kernel_release/kernel/arch/arm64/include/asm/processor.h"
	.file 31 "/mnt/disk/jslave/ci/workspace/BKL_L04_B100_chipset/opensource/component_code/vendor/huawei/extra/build/build_script/kirin_kernel_release/kernel/include/asm-generic/atomic-long.h"
	.file 32 "/mnt/disk/jslave/ci/workspace/BKL_L04_B100_chipset/opensource/component_code/vendor/huawei/extra/build/build_script/kirin_kernel_release/kernel/include/linux/seqlock.h"
	.file 33 "/mnt/disk/jslave/ci/workspace/BKL_L04_B100_chipset/opensource/component_code/vendor/huawei/extra/build/build_script/kirin_kernel_release/kernel/include/linux/plist.h"
	.file 34 "/mnt/disk/jslave/ci/workspace/BKL_L04_B100_chipset/opensource/component_code/vendor/huawei/extra/build/build_script/kirin_kernel_release/kernel/include/linux/cpumask.h"
	.file 35 "/mnt/disk/jslave/ci/workspace/BKL_L04_B100_chipset/opensource/component_code/vendor/huawei/extra/build/build_script/kirin_kernel_release/kernel/include/linux/wait.h"
	.file 36 "/mnt/disk/jslave/ci/workspace/BKL_L04_B100_chipset/opensource/component_code/vendor/huawei/extra/build/build_script/kirin_kernel_release/kernel/include/linux/completion.h"
	.file 37 "/mnt/disk/jslave/ci/workspace/BKL_L04_B100_chipset/opensource/component_code/vendor/huawei/extra/build/build_script/kirin_kernel_release/kernel/include/linux/ktime.h"
	.file 38 "/mnt/disk/jslave/ci/workspace/BKL_L04_B100_chipset/opensource/component_code/vendor/huawei/extra/build/build_script/kirin_kernel_release/kernel/include/linux/rbtree.h"
	.file 39 "/mnt/disk/jslave/ci/workspace/BKL_L04_B100_chipset/opensource/component_code/vendor/huawei/extra/build/build_script/kirin_kernel_release/kernel/include/linux/nodemask.h"
	.file 40 "/mnt/disk/jslave/ci/workspace/BKL_L04_B100_chipset/opensource/component_code/vendor/huawei/extra/build/build_script/kirin_kernel_release/kernel/include/linux/osq_lock.h"
	.file 41 "/mnt/disk/jslave/ci/workspace/BKL_L04_B100_chipset/opensource/component_code/vendor/huawei/extra/build/build_script/kirin_kernel_release/kernel/include/linux/rwsem.h"
	.file 42 "/mnt/disk/jslave/ci/workspace/BKL_L04_B100_chipset/opensource/component_code/vendor/huawei/extra/build/build_script/kirin_kernel_release/kernel/include/linux/mm_types.h"
	.file 43 "/mnt/disk/jslave/ci/workspace/BKL_L04_B100_chipset/opensource/component_code/vendor/huawei/extra/build/build_script/kirin_kernel_release/kernel/include/linux/lockdep.h"
	.file 44 "/mnt/disk/jslave/ci/workspace/BKL_L04_B100_chipset/opensource/component_code/vendor/huawei/extra/build/build_script/kirin_kernel_release/kernel/include/linux/uprobes.h"
	.file 45 "/mnt/disk/jslave/ci/workspace/BKL_L04_B100_chipset/opensource/component_code/vendor/huawei/extra/build/build_script/kirin_kernel_release/kernel/include/linux/timer.h"
	.file 46 "/mnt/disk/jslave/ci/workspace/BKL_L04_B100_chipset/opensource/component_code/vendor/huawei/extra/build/build_script/kirin_kernel_release/kernel/include/linux/sysctl.h"
	.file 47 "/mnt/disk/jslave/ci/workspace/BKL_L04_B100_chipset/opensource/component_code/vendor/huawei/extra/build/build_script/kirin_kernel_release/kernel/include/linux/nsproxy.h"
	.file 48 "/mnt/disk/jslave/ci/workspace/BKL_L04_B100_chipset/opensource/component_code/vendor/huawei/extra/build/build_script/kirin_kernel_release/kernel/include/linux/workqueue.h"
	.file 49 "/mnt/disk/jslave/ci/workspace/BKL_L04_B100_chipset/opensource/component_code/vendor/huawei/extra/build/build_script/kirin_kernel_release/kernel/arch/arm64/include/asm/pgtable-types.h"
	.file 50 "/mnt/disk/jslave/ci/workspace/BKL_L04_B100_chipset/opensource/component_code/vendor/huawei/extra/build/build_script/kirin_kernel_release/kernel/arch/arm64/include/asm/mmu.h"
	.file 51 "/mnt/disk/jslave/ci/workspace/BKL_L04_B100_chipset/opensource/component_code/vendor/huawei/extra/build/build_script/kirin_kernel_release/kernel/include/linux/fs.h"
	.file 52 "/mnt/disk/jslave/ci/workspace/BKL_L04_B100_chipset/opensource/component_code/vendor/huawei/extra/build/build_script/kirin_kernel_release/kernel/include/linux/mm.h"
	.file 53 "/mnt/disk/jslave/ci/workspace/BKL_L04_B100_chipset/opensource/component_code/vendor/huawei/extra/build/build_script/kirin_kernel_release/kernel/include/linux/stddef.h"
	.file 54 "/mnt/disk/jslave/ci/workspace/BKL_L04_B100_chipset/opensource/component_code/vendor/huawei/extra/build/build_script/kirin_kernel_release/kernel/include/asm-generic/cputime_jiffies.h"
	.file 55 "/mnt/disk/jslave/ci/workspace/BKL_L04_B100_chipset/opensource/component_code/vendor/huawei/extra/build/build_script/kirin_kernel_release/kernel/include/linux/llist.h"
	.file 56 "/mnt/disk/jslave/ci/workspace/BKL_L04_B100_chipset/opensource/component_code/vendor/huawei/extra/build/build_script/kirin_kernel_release/kernel/arch/arm64/include/asm/smp.h"
	.file 57 "/mnt/disk/jslave/ci/workspace/BKL_L04_B100_chipset/opensource/component_code/vendor/huawei/extra/build/build_script/kirin_kernel_release/kernel/include/linux/uidgid.h"
	.file 58 "/mnt/disk/jslave/ci/workspace/BKL_L04_B100_chipset/opensource/component_code/vendor/huawei/extra/build/build_script/kirin_kernel_release/kernel/include/uapi/asm-generic/signal.h"
	.file 59 "/mnt/disk/jslave/ci/workspace/BKL_L04_B100_chipset/opensource/component_code/vendor/huawei/extra/build/build_script/kirin_kernel_release/kernel/include/uapi/asm-generic/signal-defs.h"
	.file 60 "/mnt/disk/jslave/ci/workspace/BKL_L04_B100_chipset/opensource/component_code/vendor/huawei/extra/build/build_script/kirin_kernel_release/kernel/include/uapi/asm-generic/siginfo.h"
	.file 61 "/mnt/disk/jslave/ci/workspace/BKL_L04_B100_chipset/opensource/component_code/vendor/huawei/extra/build/build_script/kirin_kernel_release/kernel/include/linux/signal.h"
	.file 62 "/mnt/disk/jslave/ci/workspace/BKL_L04_B100_chipset/opensource/component_code/vendor/huawei/extra/build/build_script/kirin_kernel_release/kernel/include/linux/pid.h"
	.file 63 "/mnt/disk/jslave/ci/workspace/BKL_L04_B100_chipset/opensource/component_code/vendor/huawei/extra/build/build_script/kirin_kernel_release/kernel/include/linux/percpu.h"
	.file 64 "/mnt/disk/jslave/ci/workspace/BKL_L04_B100_chipset/opensource/component_code/vendor/huawei/extra/build/build_script/kirin_kernel_release/kernel/include/linux/mmzone.h"
	.file 65 "/mnt/disk/jslave/ci/workspace/BKL_L04_B100_chipset/opensource/component_code/vendor/huawei/extra/build/build_script/kirin_kernel_release/kernel/include/linux/mutex.h"
	.file 66 "/mnt/disk/jslave/ci/workspace/BKL_L04_B100_chipset/opensource/component_code/vendor/huawei/extra/build/build_script/kirin_kernel_release/kernel/include/linux/notifier.h"
	.file 67 "/mnt/disk/jslave/ci/workspace/BKL_L04_B100_chipset/opensource/component_code/vendor/huawei/extra/build/build_script/kirin_kernel_release/kernel/include/linux/percpu_counter.h"
	.file 68 "/mnt/disk/jslave/ci/workspace/BKL_L04_B100_chipset/opensource/component_code/vendor/huawei/extra/build/build_script/kirin_kernel_release/kernel/include/linux/seccomp.h"
	.file 69 "/mnt/disk/jslave/ci/workspace/BKL_L04_B100_chipset/opensource/component_code/vendor/huawei/extra/build/build_script/kirin_kernel_release/kernel/include/uapi/linux/resource.h"
	.file 70 "/mnt/disk/jslave/ci/workspace/BKL_L04_B100_chipset/opensource/component_code/vendor/huawei/extra/build/build_script/kirin_kernel_release/kernel/include/linux/timerqueue.h"
	.file 71 "/mnt/disk/jslave/ci/workspace/BKL_L04_B100_chipset/opensource/component_code/vendor/huawei/extra/build/build_script/kirin_kernel_release/kernel/include/linux/hrtimer.h"
	.file 72 "/mnt/disk/jslave/ci/workspace/BKL_L04_B100_chipset/opensource/component_code/vendor/huawei/extra/build/build_script/kirin_kernel_release/kernel/include/linux/task_io_accounting.h"
	.file 73 "/mnt/disk/jslave/ci/workspace/BKL_L04_B100_chipset/opensource/component_code/vendor/huawei/extra/build/build_script/kirin_kernel_release/kernel/include/linux/assoc_array.h"
	.file 74 "/mnt/disk/jslave/ci/workspace/BKL_L04_B100_chipset/opensource/component_code/vendor/huawei/extra/build/build_script/kirin_kernel_release/kernel/include/linux/key.h"
	.file 75 "/mnt/disk/jslave/ci/workspace/BKL_L04_B100_chipset/opensource/component_code/vendor/huawei/extra/build/build_script/kirin_kernel_release/kernel/include/linux/cred.h"
	.file 76 "/mnt/disk/jslave/ci/workspace/BKL_L04_B100_chipset/opensource/component_code/vendor/huawei/extra/build/build_script/kirin_kernel_release/kernel/include/linux/idr.h"
	.file 77 "/mnt/disk/jslave/ci/workspace/BKL_L04_B100_chipset/opensource/component_code/vendor/huawei/extra/build/build_script/kirin_kernel_release/kernel/include/linux/percpu-refcount.h"
	.file 78 "/mnt/disk/jslave/ci/workspace/BKL_L04_B100_chipset/opensource/component_code/vendor/huawei/extra/build/build_script/kirin_kernel_release/kernel/include/linux/rcu_sync.h"
	.file 79 "/mnt/disk/jslave/ci/workspace/BKL_L04_B100_chipset/opensource/component_code/vendor/huawei/extra/build/build_script/kirin_kernel_release/kernel/include/linux/percpu-rwsem.h"
	.file 80 "/mnt/disk/jslave/ci/workspace/BKL_L04_B100_chipset/opensource/component_code/vendor/huawei/extra/build/build_script/kirin_kernel_release/kernel/include/linux/cgroup-defs.h"
	.file 81 "/mnt/disk/jslave/ci/workspace/BKL_L04_B100_chipset/opensource/component_code/vendor/huawei/extra/build/build_script/kirin_kernel_release/kernel/include/linux/kernfs.h"
	.file 82 "/mnt/disk/jslave/ci/workspace/BKL_L04_B100_chipset/opensource/component_code/vendor/huawei/extra/build/build_script/kirin_kernel_release/kernel/include/linux/seq_file.h"
	.file 83 "/mnt/disk/jslave/ci/workspace/BKL_L04_B100_chipset/opensource/component_code/vendor/huawei/extra/build/build_script/kirin_kernel_release/kernel/include/uapi/linux/taskstats.h"
	.file 84 "/mnt/disk/jslave/ci/workspace/BKL_L04_B100_chipset/opensource/component_code/vendor/huawei/extra/build/build_script/kirin_kernel_release/kernel/include/linux/backing-dev-defs.h"
	.file 85 "/mnt/disk/jslave/ci/workspace/BKL_L04_B100_chipset/opensource/component_code/vendor/huawei/extra/build/build_script/kirin_kernel_release/kernel/include/linux/compat.h"
	.file 86 "/mnt/disk/jslave/ci/workspace/BKL_L04_B100_chipset/opensource/component_code/vendor/huawei/extra/build/build_script/kirin_kernel_release/kernel/include/linux/pipe_fs_i.h"
	.file 87 "/mnt/disk/jslave/ci/workspace/BKL_L04_B100_chipset/opensource/component_code/vendor/huawei/extra/build/build_script/kirin_kernel_release/kernel/include/linux/stat.h"
	.file 88 "/mnt/disk/jslave/ci/workspace/BKL_L04_B100_chipset/opensource/component_code/vendor/huawei/extra/build/build_script/kirin_kernel_release/kernel/include/uapi/linux/elf.h"
	.file 89 "/mnt/disk/jslave/ci/workspace/BKL_L04_B100_chipset/opensource/component_code/vendor/huawei/extra/build/build_script/kirin_kernel_release/kernel/include/linux/kobject_ns.h"
	.file 90 "/mnt/disk/jslave/ci/workspace/BKL_L04_B100_chipset/opensource/component_code/vendor/huawei/extra/build/build_script/kirin_kernel_release/kernel/include/net/sock.h"
	.file 91 "/mnt/disk/jslave/ci/workspace/BKL_L04_B100_chipset/opensource/component_code/vendor/huawei/extra/build/build_script/kirin_kernel_release/kernel/include/linux/sysfs.h"
	.file 92 "/mnt/disk/jslave/ci/workspace/BKL_L04_B100_chipset/opensource/component_code/vendor/huawei/extra/build/build_script/kirin_kernel_release/kernel/include/linux/kobject.h"
	.file 93 "/mnt/disk/jslave/ci/workspace/BKL_L04_B100_chipset/opensource/component_code/vendor/huawei/extra/build/build_script/kirin_kernel_release/kernel/include/linux/kref.h"
	.file 94 "/mnt/disk/jslave/ci/workspace/BKL_L04_B100_chipset/opensource/component_code/vendor/huawei/extra/build/build_script/kirin_kernel_release/kernel/include/linux/moduleparam.h"
	.file 95 "/mnt/disk/jslave/ci/workspace/BKL_L04_B100_chipset/opensource/component_code/vendor/huawei/extra/build/build_script/kirin_kernel_release/kernel/include/linux/module.h"
	.file 96 "/mnt/disk/jslave/ci/workspace/BKL_L04_B100_chipset/opensource/component_code/vendor/huawei/extra/build/build_script/kirin_kernel_release/kernel/include/linux/jump_label.h"
	.file 97 "/mnt/disk/jslave/ci/workspace/BKL_L04_B100_chipset/opensource/component_code/vendor/huawei/extra/build/build_script/kirin_kernel_release/kernel/include/linux/rbtree_latch.h"
	.file 98 "/mnt/disk/jslave/ci/workspace/BKL_L04_B100_chipset/opensource/component_code/vendor/huawei/extra/build/build_script/kirin_kernel_release/kernel/arch/arm64/include/asm/module.h"
	.file 99 "/mnt/disk/jslave/ci/workspace/BKL_L04_B100_chipset/opensource/component_code/vendor/huawei/extra/build/build_script/kirin_kernel_release/kernel/arch/arm64/include/asm/uaccess.h"
	.file 100 "/mnt/disk/jslave/ci/workspace/BKL_L04_B100_chipset/opensource/component_code/vendor/huawei/extra/build/build_script/kirin_kernel_release/kernel/include/linux/klist.h"
	.file 101 "/mnt/disk/jslave/ci/workspace/BKL_L04_B100_chipset/opensource/component_code/vendor/huawei/extra/build/build_script/kirin_kernel_release/kernel/include/linux/list_bl.h"
	.file 102 "/mnt/disk/jslave/ci/workspace/BKL_L04_B100_chipset/opensource/component_code/vendor/huawei/extra/build/build_script/kirin_kernel_release/kernel/include/linux/lockref.h"
	.file 103 "/mnt/disk/jslave/ci/workspace/BKL_L04_B100_chipset/opensource/component_code/vendor/huawei/extra/build/build_script/kirin_kernel_release/kernel/include/linux/dcache.h"
	.file 104 "/mnt/disk/jslave/ci/workspace/BKL_L04_B100_chipset/opensource/component_code/vendor/huawei/extra/build/build_script/kirin_kernel_release/kernel/include/linux/path.h"
	.file 105 "/mnt/disk/jslave/ci/workspace/BKL_L04_B100_chipset/opensource/component_code/vendor/huawei/extra/build/build_script/kirin_kernel_release/kernel/include/linux/shrinker.h"
	.file 106 "/mnt/disk/jslave/ci/workspace/BKL_L04_B100_chipset/opensource/component_code/vendor/huawei/extra/build/build_script/kirin_kernel_release/kernel/include/linux/list_lru.h"
	.file 107 "/mnt/disk/jslave/ci/workspace/BKL_L04_B100_chipset/opensource/component_code/vendor/huawei/extra/build/build_script/kirin_kernel_release/kernel/include/linux/radix-tree.h"
	.file 108 "/mnt/disk/jslave/ci/workspace/BKL_L04_B100_chipset/opensource/component_code/vendor/huawei/extra/build/build_script/kirin_kernel_release/kernel/include/uapi/linux/fiemap.h"
	.file 109 "/mnt/disk/jslave/ci/workspace/BKL_L04_B100_chipset/opensource/component_code/vendor/huawei/extra/build/build_script/kirin_kernel_release/kernel/include/linux/migrate_mode.h"
	.file 110 "/mnt/disk/jslave/ci/workspace/BKL_L04_B100_chipset/opensource/component_code/vendor/huawei/extra/build/build_script/kirin_kernel_release/kernel/include/linux/blk_types.h"
	.file 111 "/mnt/disk/jslave/ci/workspace/BKL_L04_B100_chipset/opensource/component_code/vendor/huawei/extra/build/build_script/kirin_kernel_release/kernel/include/linux/quota.h"
	.file 112 "/mnt/disk/jslave/ci/workspace/BKL_L04_B100_chipset/opensource/component_code/vendor/huawei/extra/build/build_script/kirin_kernel_release/kernel/include/linux/projid.h"
	.file 113 "/mnt/disk/jslave/ci/workspace/BKL_L04_B100_chipset/opensource/component_code/vendor/huawei/extra/build/build_script/kirin_kernel_release/kernel/include/uapi/linux/quota.h"
	.file 114 "/mnt/disk/jslave/ci/workspace/BKL_L04_B100_chipset/opensource/component_code/vendor/huawei/extra/build/build_script/kirin_kernel_release/kernel/include/linux/writeback.h"
	.file 115 "/mnt/disk/jslave/ci/workspace/BKL_L04_B100_chipset/opensource/component_code/vendor/huawei/extra/build/build_script/kirin_kernel_release/kernel/include/linux/uio.h"
	.file 116 "/mnt/disk/jslave/ci/workspace/BKL_L04_B100_chipset/opensource/component_code/vendor/huawei/extra/build/build_script/kirin_kernel_release/kernel/include/linux/nfs_fs_i.h"
	.file 117 "/mnt/disk/jslave/ci/workspace/BKL_L04_B100_chipset/opensource/component_code/vendor/huawei/extra/build/build_script/kirin_kernel_release/kernel/include/linux/poll.h"
	.file 118 "/mnt/disk/jslave/ci/workspace/BKL_L04_B100_chipset/opensource/component_code/vendor/huawei/extra/build/build_script/kirin_kernel_release/kernel/include/linux/pinctrl/devinfo.h"
	.file 119 "/mnt/disk/jslave/ci/workspace/BKL_L04_B100_chipset/opensource/component_code/vendor/huawei/extra/build/build_script/kirin_kernel_release/kernel/include/linux/pm.h"
	.file 120 "/mnt/disk/jslave/ci/workspace/BKL_L04_B100_chipset/opensource/component_code/vendor/huawei/extra/build/build_script/kirin_kernel_release/kernel/include/linux/device.h"
	.file 121 "/mnt/disk/jslave/ci/workspace/BKL_L04_B100_chipset/opensource/component_code/vendor/huawei/extra/build/build_script/kirin_kernel_release/kernel/include/linux/pm_wakeup.h"
	.file 122 "/mnt/disk/jslave/ci/workspace/BKL_L04_B100_chipset/opensource/component_code/vendor/huawei/extra/build/build_script/kirin_kernel_release/kernel/arch/arm64/include/asm/device.h"
	.file 123 "/mnt/disk/jslave/ci/workspace/BKL_L04_B100_chipset/opensource/component_code/vendor/huawei/extra/build/build_script/kirin_kernel_release/kernel/include/linux/dma-mapping.h"
	.file 124 "/mnt/disk/jslave/ci/workspace/BKL_L04_B100_chipset/opensource/component_code/vendor/huawei/extra/build/build_script/kirin_kernel_release/kernel/include/linux/mod_devicetable.h"
	.file 125 "/mnt/disk/jslave/ci/workspace/BKL_L04_B100_chipset/opensource/component_code/vendor/huawei/extra/build/build_script/kirin_kernel_release/kernel/include/linux/of.h"
	.file 126 "/mnt/disk/jslave/ci/workspace/BKL_L04_B100_chipset/opensource/component_code/vendor/huawei/extra/build/build_script/kirin_kernel_release/kernel/include/linux/fwnode.h"
	.file 127 "/mnt/disk/jslave/ci/workspace/BKL_L04_B100_chipset/opensource/component_code/vendor/huawei/extra/build/build_script/kirin_kernel_release/kernel/include/uapi/linux/uio.h"
	.file 128 "/mnt/disk/jslave/ci/workspace/BKL_L04_B100_chipset/opensource/component_code/vendor/huawei/extra/build/build_script/kirin_kernel_release/kernel/include/linux/vm_event_item.h"
	.file 129 "/mnt/disk/jslave/ci/workspace/BKL_L04_B100_chipset/opensource/component_code/vendor/huawei/extra/build/build_script/kirin_kernel_release/kernel/include/linux/vmstat.h"
	.file 130 "/mnt/disk/jslave/ci/workspace/BKL_L04_B100_chipset/opensource/component_code/vendor/huawei/extra/build/build_script/kirin_kernel_release/kernel/include/linux/scatterlist.h"
	.file 131 "/mnt/disk/jslave/ci/workspace/BKL_L04_B100_chipset/opensource/component_code/vendor/huawei/extra/build/build_script/kirin_kernel_release/kernel/include/linux/dmaengine.h"
	.file 132 "/mnt/disk/jslave/ci/workspace/BKL_L04_B100_chipset/opensource/component_code/vendor/huawei/extra/build/build_script/kirin_kernel_release/kernel/include/linux/dynamic_queue_limits.h"
	.file 133 "/mnt/disk/jslave/ci/workspace/BKL_L04_B100_chipset/opensource/component_code/vendor/huawei/extra/build/build_script/kirin_kernel_release/kernel/include/uapi/linux/socket.h"
	.file 134 "/mnt/disk/jslave/ci/workspace/BKL_L04_B100_chipset/opensource/component_code/vendor/huawei/extra/build/build_script/kirin_kernel_release/kernel/include/linux/socket.h"
	.file 135 "/mnt/disk/jslave/ci/workspace/BKL_L04_B100_chipset/opensource/component_code/vendor/huawei/extra/build/build_script/kirin_kernel_release/kernel/include/uapi/linux/hdlc/ioctl.h"
	.file 136 "/mnt/disk/jslave/ci/workspace/BKL_L04_B100_chipset/opensource/component_code/vendor/huawei/extra/build/build_script/kirin_kernel_release/kernel/include/uapi/linux/if.h"
	.file 137 "/mnt/disk/jslave/ci/workspace/BKL_L04_B100_chipset/opensource/component_code/vendor/huawei/extra/build/build_script/kirin_kernel_release/kernel/include/uapi/linux/net.h"
	.file 138 "/mnt/disk/jslave/ci/workspace/BKL_L04_B100_chipset/opensource/component_code/vendor/huawei/extra/build/build_script/kirin_kernel_release/kernel/include/linux/net.h"
	.file 139 "/mnt/disk/jslave/ci/workspace/BKL_L04_B100_chipset/opensource/component_code/vendor/huawei/extra/build/build_script/kirin_kernel_release/kernel/include/net/net_namespace.h"
	.file 140 "/mnt/disk/jslave/ci/workspace/BKL_L04_B100_chipset/opensource/component_code/vendor/huawei/extra/build/build_script/kirin_kernel_release/kernel/include/linux/dma-attrs.h"
	.file 141 "/mnt/disk/jslave/ci/workspace/BKL_L04_B100_chipset/opensource/component_code/vendor/huawei/extra/build/build_script/kirin_kernel_release/kernel/include/linux/dma-direction.h"
	.file 142 "/mnt/disk/jslave/ci/workspace/BKL_L04_B100_chipset/opensource/component_code/vendor/huawei/extra/build/build_script/kirin_kernel_release/kernel/include/linux/netdev_features.h"
	.file 143 "/mnt/disk/jslave/ci/workspace/BKL_L04_B100_chipset/opensource/component_code/vendor/huawei/extra/build/build_script/kirin_kernel_release/kernel/include/uapi/linux/in6.h"
	.file 144 "/mnt/disk/jslave/ci/workspace/BKL_L04_B100_chipset/opensource/component_code/vendor/huawei/extra/build/build_script/kirin_kernel_release/kernel/include/uapi/linux/if_ether.h"
	.file 145 "/mnt/disk/jslave/ci/workspace/BKL_L04_B100_chipset/opensource/component_code/vendor/huawei/extra/build/build_script/kirin_kernel_release/kernel/include/net/flow_dissector.h"
	.file 146 "/mnt/disk/jslave/ci/workspace/BKL_L04_B100_chipset/opensource/component_code/vendor/huawei/extra/build/build_script/kirin_kernel_release/kernel/include/net/flow.h"
	.file 147 "/mnt/disk/jslave/ci/workspace/BKL_L04_B100_chipset/opensource/component_code/vendor/huawei/extra/build/build_script/kirin_kernel_release/kernel/include/linux/netdevice.h"
	.file 148 "/mnt/disk/jslave/ci/workspace/BKL_L04_B100_chipset/opensource/component_code/vendor/huawei/extra/build/build_script/kirin_kernel_release/kernel/include/uapi/linux/ethtool.h"
	.file 149 "/mnt/disk/jslave/ci/workspace/BKL_L04_B100_chipset/opensource/component_code/vendor/huawei/extra/build/build_script/kirin_kernel_release/kernel/include/linux/ethtool.h"
	.file 150 "/mnt/disk/jslave/ci/workspace/BKL_L04_B100_chipset/opensource/component_code/vendor/huawei/extra/build/build_script/kirin_kernel_release/kernel/include/net/netns/core.h"
	.file 151 "/mnt/disk/jslave/ci/workspace/BKL_L04_B100_chipset/opensource/component_code/vendor/huawei/extra/build/build_script/kirin_kernel_release/kernel/include/uapi/linux/snmp.h"
	.file 152 "/mnt/disk/jslave/ci/workspace/BKL_L04_B100_chipset/opensource/component_code/vendor/huawei/extra/build/build_script/kirin_kernel_release/kernel/include/linux/u64_stats_sync.h"
	.file 153 "/mnt/disk/jslave/ci/workspace/BKL_L04_B100_chipset/opensource/component_code/vendor/huawei/extra/build/build_script/kirin_kernel_release/kernel/include/net/snmp.h"
	.file 154 "/mnt/disk/jslave/ci/workspace/BKL_L04_B100_chipset/opensource/component_code/vendor/huawei/extra/build/build_script/kirin_kernel_release/kernel/include/net/netns/mib.h"
	.file 155 "/mnt/disk/jslave/ci/workspace/BKL_L04_B100_chipset/opensource/component_code/vendor/huawei/extra/build/build_script/kirin_kernel_release/kernel/include/net/netns/unix.h"
	.file 156 "/mnt/disk/jslave/ci/workspace/BKL_L04_B100_chipset/opensource/component_code/vendor/huawei/extra/build/build_script/kirin_kernel_release/kernel/include/net/netns/packet.h"
	.file 157 "/mnt/disk/jslave/ci/workspace/BKL_L04_B100_chipset/opensource/component_code/vendor/huawei/extra/build/build_script/kirin_kernel_release/kernel/include/net/inet_frag.h"
	.file 158 "/mnt/disk/jslave/ci/workspace/BKL_L04_B100_chipset/opensource/component_code/vendor/huawei/extra/build/build_script/kirin_kernel_release/kernel/include/net/netns/ipv4.h"
	.file 159 "/mnt/disk/jslave/ci/workspace/BKL_L04_B100_chipset/opensource/component_code/vendor/huawei/extra/build/build_script/kirin_kernel_release/kernel/include/net/fib_rules.h"
	.file 160 "/mnt/disk/jslave/ci/workspace/BKL_L04_B100_chipset/opensource/component_code/vendor/huawei/extra/build/build_script/kirin_kernel_release/kernel/include/net/ip_fib.h"
	.file 161 "/mnt/disk/jslave/ci/workspace/BKL_L04_B100_chipset/opensource/component_code/vendor/huawei/extra/build/build_script/kirin_kernel_release/kernel/include/net/inetpeer.h"
	.file 162 "/mnt/disk/jslave/ci/workspace/BKL_L04_B100_chipset/opensource/component_code/vendor/huawei/extra/build/build_script/kirin_kernel_release/kernel/include/net/dst_ops.h"
	.file 163 "/mnt/disk/jslave/ci/workspace/BKL_L04_B100_chipset/opensource/component_code/vendor/huawei/extra/build/build_script/kirin_kernel_release/kernel/include/net/dst.h"
	.file 164 "/mnt/disk/jslave/ci/workspace/BKL_L04_B100_chipset/opensource/component_code/vendor/huawei/extra/build/build_script/kirin_kernel_release/kernel/include/net/neighbour.h"
	.file 165 "/mnt/disk/jslave/ci/workspace/BKL_L04_B100_chipset/opensource/component_code/vendor/huawei/extra/build/build_script/kirin_kernel_release/kernel/include/net/netns/ipv6.h"
	.file 166 "/mnt/disk/jslave/ci/workspace/BKL_L04_B100_chipset/opensource/component_code/vendor/huawei/extra/build/build_script/kirin_kernel_release/kernel/include/linux/ipv6.h"
	.file 167 "/mnt/disk/jslave/ci/workspace/BKL_L04_B100_chipset/opensource/component_code/vendor/huawei/extra/build/build_script/kirin_kernel_release/kernel/include/net/netns/mptcp.h"
	.file 168 "/mnt/disk/jslave/ci/workspace/BKL_L04_B100_chipset/opensource/component_code/vendor/huawei/extra/build/build_script/kirin_kernel_release/kernel/include/uapi/linux/in.h"
	.file 169 "/mnt/disk/jslave/ci/workspace/BKL_L04_B100_chipset/opensource/component_code/vendor/huawei/extra/build/build_script/kirin_kernel_release/kernel/include/uapi/linux/netfilter.h"
	.file 170 "/mnt/disk/jslave/ci/workspace/BKL_L04_B100_chipset/opensource/component_code/vendor/huawei/extra/build/build_script/kirin_kernel_release/kernel/include/net/netns/netfilter.h"
	.file 171 "/mnt/disk/jslave/ci/workspace/BKL_L04_B100_chipset/opensource/component_code/vendor/huawei/extra/build/build_script/kirin_kernel_release/kernel/include/net/netns/x_tables.h"
	.file 172 "/mnt/disk/jslave/ci/workspace/BKL_L04_B100_chipset/opensource/component_code/vendor/huawei/extra/build/build_script/kirin_kernel_release/kernel/include/linux/list_nulls.h"
	.file 173 "/mnt/disk/jslave/ci/workspace/BKL_L04_B100_chipset/opensource/component_code/vendor/huawei/extra/build/build_script/kirin_kernel_release/kernel/include/uapi/linux/netfilter/nf_conntrack_tcp.h"
	.file 174 "/mnt/disk/jslave/ci/workspace/BKL_L04_B100_chipset/opensource/component_code/vendor/huawei/extra/build/build_script/kirin_kernel_release/kernel/include/net/netns/conntrack.h"
	.file 175 "/mnt/disk/jslave/ci/workspace/BKL_L04_B100_chipset/opensource/component_code/vendor/huawei/extra/build/build_script/kirin_kernel_release/kernel/include/net/netns/nftables.h"
	.file 176 "/mnt/disk/jslave/ci/workspace/BKL_L04_B100_chipset/opensource/component_code/vendor/huawei/extra/build/build_script/kirin_kernel_release/kernel/include/uapi/linux/xfrm.h"
	.file 177 "/mnt/disk/jslave/ci/workspace/BKL_L04_B100_chipset/opensource/component_code/vendor/huawei/extra/build/build_script/kirin_kernel_release/kernel/include/linux/interrupt.h"
	.file 178 "/mnt/disk/jslave/ci/workspace/BKL_L04_B100_chipset/opensource/component_code/vendor/huawei/extra/build/build_script/kirin_kernel_release/kernel/include/net/flowcache.h"
	.file 179 "/mnt/disk/jslave/ci/workspace/BKL_L04_B100_chipset/opensource/component_code/vendor/huawei/extra/build/build_script/kirin_kernel_release/kernel/include/net/netns/xfrm.h"
	.file 180 "/mnt/disk/jslave/ci/workspace/BKL_L04_B100_chipset/opensource/component_code/vendor/huawei/extra/build/build_script/kirin_kernel_release/kernel/include/linux/ns_common.h"
	.file 181 "/mnt/disk/jslave/ci/workspace/BKL_L04_B100_chipset/opensource/component_code/vendor/huawei/extra/build/build_script/kirin_kernel_release/kernel/include/linux/phy.h"
	.file 182 "/mnt/disk/jslave/ci/workspace/BKL_L04_B100_chipset/opensource/component_code/vendor/huawei/extra/build/build_script/kirin_kernel_release/kernel/include/uapi/linux/netlink.h"
	.file 183 "/mnt/disk/jslave/ci/workspace/BKL_L04_B100_chipset/opensource/component_code/vendor/huawei/extra/build/build_script/kirin_kernel_release/kernel/include/uapi/linux/neighbour.h"
	.file 184 "/mnt/disk/jslave/ci/workspace/BKL_L04_B100_chipset/opensource/component_code/vendor/huawei/extra/build/build_script/kirin_kernel_release/kernel/include/uapi/linux/if_link.h"
	.file 185 "/mnt/disk/jslave/ci/workspace/BKL_L04_B100_chipset/opensource/component_code/vendor/huawei/extra/build/build_script/kirin_kernel_release/kernel/include/linux/if_link.h"
	.file 186 "/mnt/disk/jslave/ci/workspace/BKL_L04_B100_chipset/opensource/component_code/vendor/huawei/extra/build/build_script/kirin_kernel_release/kernel/include/net/sch_generic.h"
	.file 187 "/mnt/disk/jslave/ci/workspace/BKL_L04_B100_chipset/opensource/component_code/vendor/huawei/extra/build/build_script/kirin_kernel_release/kernel/include/net/if_inet6.h"
	.file 188 "/mnt/disk/jslave/ci/workspace/BKL_L04_B100_chipset/opensource/component_code/vendor/huawei/extra/build/build_script/kirin_kernel_release/kernel/include/net/rtnetlink.h"
	.file 189 "/mnt/disk/jslave/ci/workspace/BKL_L04_B100_chipset/opensource/component_code/vendor/huawei/extra/build/build_script/kirin_kernel_release/kernel/include/linux/netfilter.h"
	.file 190 "/mnt/disk/jslave/ci/workspace/BKL_L04_B100_chipset/opensource/component_code/vendor/huawei/extra/build/build_script/kirin_kernel_release/kernel/include/uapi/linux/netfilter_ipv4.h"
	.file 191 "/mnt/disk/jslave/ci/workspace/BKL_L04_B100_chipset/opensource/component_code/vendor/huawei/extra/build/build_script/kirin_kernel_release/kernel/include/uapi/linux/ip.h"
	.file 192 "/mnt/disk/jslave/ci/workspace/BKL_L04_B100_chipset/opensource/component_code/vendor/huawei/extra/build/build_script/kirin_kernel_release/kernel/include/linux/page_counter.h"
	.file 193 "/mnt/disk/jslave/ci/workspace/BKL_L04_B100_chipset/opensource/component_code/vendor/huawei/extra/build/build_script/kirin_kernel_release/kernel/include/linux/flex_proportions.h"
	.file 194 "/mnt/disk/jslave/ci/workspace/BKL_L04_B100_chipset/opensource/component_code/vendor/huawei/extra/build/build_script/kirin_kernel_release/kernel/include/linux/memcontrol.h"
	.file 195 "/mnt/disk/jslave/ci/workspace/BKL_L04_B100_chipset/opensource/component_code/vendor/huawei/extra/build/build_script/kirin_kernel_release/kernel/include/uapi/linux/pkt_sched.h"
	.file 196 "/mnt/disk/jslave/ci/workspace/BKL_L04_B100_chipset/opensource/component_code/vendor/huawei/extra/build/build_script/kirin_kernel_release/kernel/include/uapi/linux/gen_stats.h"
	.file 197 "/mnt/disk/jslave/ci/workspace/BKL_L04_B100_chipset/opensource/component_code/vendor/huawei/extra/build/build_script/kirin_kernel_release/kernel/include/uapi/linux/rtnetlink.h"
	.file 198 "/mnt/disk/jslave/ci/workspace/BKL_L04_B100_chipset/opensource/component_code/vendor/huawei/extra/build/build_script/kirin_kernel_release/kernel/include/net/gen_stats.h"
	.file 199 "/mnt/disk/jslave/ci/workspace/BKL_L04_B100_chipset/opensource/component_code/vendor/huawei/extra/build/build_script/kirin_kernel_release/kernel/include/uapi/linux/filter.h"
	.file 200 "/mnt/disk/jslave/ci/workspace/BKL_L04_B100_chipset/opensource/component_code/vendor/huawei/extra/build/build_script/kirin_kernel_release/kernel/include/uapi/linux/bpf.h"
	.file 201 "/mnt/disk/jslave/ci/workspace/BKL_L04_B100_chipset/opensource/component_code/vendor/huawei/extra/build/build_script/kirin_kernel_release/kernel/include/linux/filter.h"
	.file 202 "/mnt/disk/jslave/ci/workspace/BKL_L04_B100_chipset/opensource/component_code/vendor/huawei/extra/build/build_script/kirin_kernel_release/kernel/include/net/route.h"
	.file 203 "/mnt/disk/jslave/ci/workspace/BKL_L04_B100_chipset/opensource/component_code/vendor/huawei/extra/build/build_script/kirin_kernel_release/kernel/include/net/tcp_states.h"
	.file 204 "/mnt/disk/jslave/ci/workspace/BKL_L04_B100_chipset/opensource/component_code/vendor/huawei/extra/build/build_script/kirin_kernel_release/kernel/include/huawei_platform/emcom/smartcare/network_measurement/nm_types.h"
	.file 205 "/mnt/disk/jslave/ci/workspace/BKL_L04_B100_chipset/opensource/component_code/vendor/huawei/extra/build/build_script/kirin_kernel_release/kernel/include/net/inet_timewait_sock.h"
	.file 206 "/mnt/disk/jslave/ci/workspace/BKL_L04_B100_chipset/opensource/component_code/vendor/huawei/extra/build/build_script/kirin_kernel_release/kernel/include/net/request_sock.h"
	.file 207 "/mnt/disk/jslave/ci/workspace/BKL_L04_B100_chipset/opensource/component_code/vendor/huawei/extra/build/build_script/kirin_kernel_release/kernel/include/net/timewait_sock.h"
	.file 208 "/mnt/disk/jslave/ci/workspace/BKL_L04_B100_chipset/opensource/component_code/vendor/huawei/extra/build/build_script/kirin_kernel_release/kernel/include/uapi/linux/tcp.h"
	.file 209 "/mnt/disk/jslave/ci/workspace/BKL_L04_B100_chipset/opensource/component_code/vendor/huawei/extra/build/build_script/kirin_kernel_release/kernel/include/huawei_platform/log/hw_log.h"
	.file 210 "/mnt/disk/jslave/ci/workspace/BKL_L04_B100_chipset/opensource/component_code/vendor/huawei/extra/build/build_script/kirin_kernel_release/kernel/include/net/ndisc.h"
	.file 211 "/mnt/disk/jslave/ci/workspace/BKL_L04_B100_chipset/opensource/component_code/vendor/huawei/extra/build/build_script/kirin_kernel_release/kernel/include/uapi/linux/fib_rules.h"
	.file 212 "/mnt/disk/jslave/ci/workspace/BKL_L04_B100_chipset/opensource/component_code/vendor/huawei/extra/build/build_script/kirin_kernel_release/kernel/drivers/huawei_platform/net/hw_netfilter/nf_app_dl_monitor.h"
	.file 213 "/mnt/disk/jslave/ci/workspace/BKL_L04_B100_chipset/opensource/component_code/vendor/huawei/extra/build/build_script/kirin_kernel_release/kernel/include/linux/ip.h"
	.file 214 "/mnt/disk/jslave/ci/workspace/BKL_L04_B100_chipset/opensource/component_code/vendor/huawei/extra/build/build_script/kirin_kernel_release/kernel/include/asm-generic/preempt.h"
	.file 215 "/mnt/disk/jslave/ci/workspace/BKL_L04_B100_chipset/opensource/component_code/vendor/huawei/extra/build/build_script/kirin_kernel_release/kernel/include/linux/tcp.h"
	.file 216 "/mnt/disk/jslave/ci/workspace/BKL_L04_B100_chipset/opensource/component_code/vendor/huawei/extra/build/build_script/kirin_kernel_release/kernel/include/huawei_platform/emcom/argo/tcp_argo.h"
	.file 217 "/mnt/disk/jslave/ci/workspace/BKL_L04_B100_chipset/opensource/component_code/vendor/huawei/extra/build/build_script/kirin_kernel_release/kernel/arch/arm64/include/asm/cachetype.h"
	.file 218 "/mnt/disk/jslave/ci/workspace/BKL_L04_B100_chipset/opensource/component_code/vendor/huawei/extra/build/build_script/kirin_kernel_release/kernel/include/linux/printk.h"
	.file 219 "/mnt/disk/jslave/ci/workspace/BKL_L04_B100_chipset/opensource/component_code/vendor/huawei/extra/build/build_script/kirin_kernel_release/kernel/include/linux/kernel.h"
	.file 220 "/mnt/disk/jslave/ci/workspace/BKL_L04_B100_chipset/opensource/component_code/vendor/huawei/extra/build/build_script/kirin_kernel_release/kernel/arch/arm64/include/asm/stack_pointer.h"
	.file 221 "/mnt/disk/jslave/ci/workspace/BKL_L04_B100_chipset/opensource/component_code/vendor/huawei/extra/build/build_script/kirin_kernel_release/kernel/include/chipset_common/kernel_harden/kaslr.h"
	.file 222 "/mnt/disk/jslave/ci/workspace/BKL_L04_B100_chipset/opensource/component_code/vendor/huawei/extra/build/build_script/kirin_kernel_release/kernel/arch/arm64/include/asm/hwcap.h"
	.file 223 "/mnt/disk/jslave/ci/workspace/BKL_L04_B100_chipset/opensource/component_code/vendor/huawei/extra/build/build_script/kirin_kernel_release/kernel/arch/arm64/include/asm/cpufeature.h"
	.file 224 "/mnt/disk/jslave/ci/workspace/BKL_L04_B100_chipset/opensource/component_code/vendor/huawei/extra/build/build_script/kirin_kernel_release/kernel/include/linux/jiffies.h"
	.file 225 "/mnt/disk/jslave/ci/workspace/BKL_L04_B100_chipset/opensource/component_code/vendor/huawei/extra/build/build_script/kirin_kernel_release/kernel/arch/arm64/include/asm/memory.h"
	.file 226 "/mnt/disk/jslave/ci/workspace/BKL_L04_B100_chipset/opensource/component_code/vendor/huawei/extra/build/build_script/kirin_kernel_release/kernel/include/linux/highuid.h"
	.file 227 "/mnt/disk/jslave/ci/workspace/BKL_L04_B100_chipset/opensource/component_code/vendor/huawei/extra/build/build_script/kirin_kernel_release/kernel/include/asm-generic/percpu.h"
	.file 228 "/mnt/disk/jslave/ci/workspace/BKL_L04_B100_chipset/opensource/component_code/vendor/huawei/extra/build/build_script/kirin_kernel_release/kernel/include/asm-generic/pgtable.h"
	.file 229 "/mnt/disk/jslave/ci/workspace/BKL_L04_B100_chipset/opensource/component_code/vendor/huawei/extra/build/build_script/kirin_kernel_release/kernel/include/linux/hisi/hisi_hkip.h"
	.file 230 "/mnt/disk/jslave/ci/workspace/BKL_L04_B100_chipset/opensource/component_code/vendor/huawei/extra/build/build_script/kirin_kernel_release/kernel/include/linux/debug_locks.h"
	.file 231 "/mnt/disk/jslave/ci/workspace/BKL_L04_B100_chipset/opensource/component_code/vendor/huawei/extra/build/build_script/kirin_kernel_release/kernel/include/linux/slab.h"
	.file 232 "/mnt/disk/jslave/ci/workspace/BKL_L04_B100_chipset/opensource/component_code/vendor/huawei/extra/build/build_script/kirin_kernel_release/kernel/arch/arm64/include/../../arm/include/asm/xen/hypervisor.h"
	.file 233 "/mnt/disk/jslave/ci/workspace/BKL_L04_B100_chipset/opensource/component_code/vendor/huawei/extra/build/build_script/kirin_kernel_release/kernel/arch/arm64/include/asm/dma-mapping.h"
	.file 234 "/mnt/disk/jslave/ci/workspace/BKL_L04_B100_chipset/opensource/component_code/vendor/huawei/extra/build/build_script/kirin_kernel_release/kernel/arch/arm64/include/asm/irq.h"
	.file 235 "/mnt/disk/jslave/ci/workspace/BKL_L04_B100_chipset/opensource/component_code/vendor/huawei/extra/build/build_script/kirin_kernel_release/kernel/arch/arm64/include/asm/hardirq.h"
	.file 236 "/mnt/disk/jslave/ci/workspace/BKL_L04_B100_chipset/opensource/component_code/vendor/huawei/extra/build/build_script/kirin_kernel_release/kernel/include/linux/cgroup.h"
	.file 237 "/mnt/disk/jslave/ci/workspace/BKL_L04_B100_chipset/opensource/component_code/vendor/huawei/extra/build/build_script/kirin_kernel_release/kernel/include/net/inet_connection_sock.h"
	.file 238 "/mnt/disk/jslave/ci/workspace/BKL_L04_B100_chipset/opensource/component_code/vendor/huawei/extra/build/build_script/kirin_kernel_release/kernel/include/linux/ctype.h"
	.file 239 "/mnt/disk/jslave/ci/workspace/BKL_L04_B100_chipset/opensource/component_code/vendor/huawei/extra/build/build_script/kirin_kernel_release/kernel/drivers/huawei_platform/net/hw_netfilter/nf_ad_filter.h"
	.file 240 "/mnt/disk/jslave/ci/workspace/BKL_L04_B100_chipset/opensource/component_code/vendor/huawei/extra/build/build_script/kirin_kernel_release/kernel/include/linux/spinlock_api_smp.h"
	.file 241 "/mnt/disk/jslave/ci/workspace/BKL_L04_B100_chipset/opensource/component_code/vendor/huawei/extra/build/build_script/kirin_kernel_release/kernel/arch/arm64/include/asm/string.h"
	.file 242 "/mnt/disk/jslave/ci/workspace/BKL_L04_B100_chipset/opensource/component_code/vendor/huawei/extra/build/build_script/kirin_kernel_release/kernel/drivers/huawei_platform/net/hw_netfilter/nf_hw_common.h"
	.section	.note.GNU-stack,"",%progbits
